; ModuleID = '/home/matti/TD/VHDL/PYNQ/boards/ip/hls/trace_cntrl/solution1/.autopilot/db/a.o.3.bc'
target datalayout = "e-p:64:64:64-i1:8:8-i8:8:8-i16:16:16-i32:32:32-i64:64:64-f32:32:32-f64:64:64-v64:64:64-v128:128:128-a0:0:64-s0:64:64-f80:128:128-n8:16:32:64-S128"
target triple = "x86_64-unknown-linux-gnu"

@trace_cntrl_str = internal unnamed_addr constant [12 x i8] c"trace_cntrl\00" ; [#uses=1 type=[12 x i8]*]
@llvm_global_ctors_1 = appending global [1 x void ()*] [void ()* @_GLOBAL__I_a] ; [#uses=0 type=[1 x void ()*]*]
@llvm_global_ctors_0 = appending global [1 x i32] [i32 65535] ; [#uses=0 type=[1 x i32]*]
@p_str4 = private unnamed_addr constant [12 x i8] c"hls_label_0\00", align 1 ; [#uses=2 type=[12 x i8]*]
@p_str3 = private unnamed_addr constant [12 x i8] c"trace_cntrl\00", align 1 ; [#uses=3 type=[12 x i8]*]
@p_str2 = private unnamed_addr constant [10 x i8] c"s_axilite\00", align 1 ; [#uses=3 type=[10 x i8]*]
@p_str1 = private unnamed_addr constant [1 x i8] zeroinitializer, align 1 ; [#uses=18 type=[1 x i8]*]
@p_str = private unnamed_addr constant [5 x i8] c"axis\00", align 1 ; [#uses=2 type=[5 x i8]*]

; [#uses=0]
define void @trace_cntrl(i64* %A_data_V, i8* %A_keep_V, i8* %A_strb_V, i2* %A_user_V, i1* %A_last_V, i5* %A_id_V, i1* %A_dest_V, i64* %B_data_V, i8* %B_keep_V, i8* %B_strb_V, i2* %B_user_V, i1* %B_last_V, i5* %B_id_V, i1* %B_dest_V, i64 %data_compare_V, i32 %length) {
  %samples = alloca i32                           ; [#uses=3 type=i32*]
  call void @llvm.dbg.declare(metadata !{i32* %samples}, metadata !40) ; [debug variable = samples]
  %i = alloca i32                                 ; [#uses=3 type=i32*]
  call void @llvm.dbg.declare(metadata !{i32* %i}, metadata !2065) ; [debug variable = i]
  %length_read = call i32 @_ssdm_op_Read.s_axilite.i32(i32 %length) ; [#uses=2 type=i32]
  call void @llvm.dbg.value(metadata !{i32 %length_read}, i64 0, metadata !2066), !dbg !2067 ; [debug line = 4:93] [debug variable = length]
  %data_compare_V_read = call i64 @_ssdm_op_Read.s_axilite.i64(i64 %data_compare_V) ; [#uses=1 type=i64]
  call void (...)* @_ssdm_op_SpecBitsMap(i64* %A_data_V), !map !2068
  call void (...)* @_ssdm_op_SpecBitsMap(i8* %A_keep_V), !map !2074
  call void (...)* @_ssdm_op_SpecBitsMap(i8* %A_strb_V), !map !2078
  call void (...)* @_ssdm_op_SpecBitsMap(i2* %A_user_V), !map !2082
  call void (...)* @_ssdm_op_SpecBitsMap(i1* %A_last_V), !map !2086
  call void (...)* @_ssdm_op_SpecBitsMap(i5* %A_id_V), !map !2090
  call void (...)* @_ssdm_op_SpecBitsMap(i1* %A_dest_V), !map !2094
  call void (...)* @_ssdm_op_SpecBitsMap(i64* %B_data_V), !map !2098
  call void (...)* @_ssdm_op_SpecBitsMap(i8* %B_keep_V), !map !2102
  call void (...)* @_ssdm_op_SpecBitsMap(i8* %B_strb_V), !map !2106
  call void (...)* @_ssdm_op_SpecBitsMap(i2* %B_user_V), !map !2110
  call void (...)* @_ssdm_op_SpecBitsMap(i1* %B_last_V), !map !2114
  call void (...)* @_ssdm_op_SpecBitsMap(i5* %B_id_V), !map !2118
  call void (...)* @_ssdm_op_SpecBitsMap(i1* %B_dest_V), !map !2122
  call void (...)* @_ssdm_op_SpecBitsMap(i64 %data_compare_V), !map !2126
  call void (...)* @_ssdm_op_SpecBitsMap(i32 %length), !map !2132
  call void (...)* @_ssdm_op_SpecTopModule([12 x i8]* @trace_cntrl_str) nounwind
  call void @llvm.dbg.value(metadata !{i64* %A_data_V}, i64 0, metadata !2136), !dbg !2147 ; [debug line = 4:38] [debug variable = A.data.V]
  call void @llvm.dbg.value(metadata !{i8* %A_keep_V}, i64 0, metadata !2148), !dbg !2147 ; [debug line = 4:38] [debug variable = A.keep.V]
  call void @llvm.dbg.value(metadata !{i8* %A_strb_V}, i64 0, metadata !2158), !dbg !2147 ; [debug line = 4:38] [debug variable = A.strb.V]
  call void @llvm.dbg.value(metadata !{i2* %A_user_V}, i64 0, metadata !2159), !dbg !2147 ; [debug line = 4:38] [debug variable = A.user.V]
  call void @llvm.dbg.value(metadata !{i1* %A_last_V}, i64 0, metadata !2169), !dbg !2147 ; [debug line = 4:38] [debug variable = A.last.V]
  call void @llvm.dbg.value(metadata !{i5* %A_id_V}, i64 0, metadata !2179), !dbg !2147 ; [debug line = 4:38] [debug variable = A.id.V]
  call void @llvm.dbg.value(metadata !{i1* %A_dest_V}, i64 0, metadata !2189), !dbg !2147 ; [debug line = 4:38] [debug variable = A.dest.V]
  call void @llvm.dbg.value(metadata !{i64* %B_data_V}, i64 0, metadata !2190), !dbg !2192 ; [debug line = 4:61] [debug variable = B.data.V]
  call void @llvm.dbg.value(metadata !{i8* %B_keep_V}, i64 0, metadata !2193), !dbg !2192 ; [debug line = 4:61] [debug variable = B.keep.V]
  call void @llvm.dbg.value(metadata !{i8* %B_strb_V}, i64 0, metadata !2194), !dbg !2192 ; [debug line = 4:61] [debug variable = B.strb.V]
  call void @llvm.dbg.value(metadata !{i2* %B_user_V}, i64 0, metadata !2195), !dbg !2192 ; [debug line = 4:61] [debug variable = B.user.V]
  call void @llvm.dbg.value(metadata !{i1* %B_last_V}, i64 0, metadata !2196), !dbg !2192 ; [debug line = 4:61] [debug variable = B.last.V]
  call void @llvm.dbg.value(metadata !{i5* %B_id_V}, i64 0, metadata !2197), !dbg !2192 ; [debug line = 4:61] [debug variable = B.id.V]
  call void @llvm.dbg.value(metadata !{i1* %B_dest_V}, i64 0, metadata !2198), !dbg !2192 ; [debug line = 4:61] [debug variable = B.dest.V]
  call void @llvm.dbg.value(metadata !{i32 %length}, i64 0, metadata !2066), !dbg !2067 ; [debug line = 4:93] [debug variable = length]
  call void (...)* @_ssdm_op_SpecInterface(i64* %A_data_V, i8* %A_keep_V, i8* %A_strb_V, i2* %A_user_V, i1* %A_last_V, i5* %A_id_V, i1* %A_dest_V, [5 x i8]* @p_str, i32 0, i32 0, i32 0, i32 50, [1 x i8]* @p_str1, [1 x i8]* @p_str1, [1 x i8]* @p_str1, i32 0, i32 0, i32 0, i32 0, [1 x i8]* @p_str1) nounwind, !dbg !2199 ; [debug line = 5:1]
  call void (...)* @_ssdm_op_SpecInterface(i64* %B_data_V, i8* %B_keep_V, i8* %B_strb_V, i2* %B_user_V, i1* %B_last_V, i5* %B_id_V, i1* %B_dest_V, [5 x i8]* @p_str, i32 0, i32 0, i32 0, i32 50, [1 x i8]* @p_str1, [1 x i8]* @p_str1, [1 x i8]* @p_str1, i32 0, i32 0, i32 0, i32 0, [1 x i8]* @p_str1) nounwind, !dbg !2200 ; [debug line = 6:1]
  call void (...)* @_ssdm_op_SpecInterface(i64 %data_compare_V, [10 x i8]* @p_str2, i32 0, i32 0, i32 0, i32 0, [12 x i8]* @p_str3, [1 x i8]* @p_str1, [1 x i8]* @p_str1, i32 0, i32 0, i32 0, i32 0, [1 x i8]* @p_str1) nounwind, !dbg !2201 ; [debug line = 7:1]
  call void (...)* @_ssdm_op_SpecInterface(i32 %length, [10 x i8]* @p_str2, i32 0, i32 0, i32 0, i32 0, [12 x i8]* @p_str3, [1 x i8]* @p_str1, [1 x i8]* @p_str1, i32 0, i32 0, i32 0, i32 0, [1 x i8]* @p_str1) nounwind, !dbg !2202 ; [debug line = 8:1]
  call void (...)* @_ssdm_op_SpecInterface(i32 0, [10 x i8]* @p_str2, i32 0, i32 0, i32 0, i32 0, [12 x i8]* @p_str3, [1 x i8]* @p_str1, [1 x i8]* @p_str1, i32 0, i32 0, i32 0, i32 0, [1 x i8]* @p_str1) nounwind, !dbg !2203 ; [debug line = 9:1]
  %tmp = add nsw i32 -1, %length_read, !dbg !2204 ; [#uses=1 type=i32] [debug line = 22:5]
  %tmp_2 = trunc i64 %data_compare_V_read to i32, !dbg !2208 ; [#uses=2 type=i32] [debug line = 1664:64@19:22]
  store i32 0, i32* %i
  store i32 0, i32* %samples
  br label %1, !dbg !2212                         ; [debug line = 16:8]

; <label>:1                                       ; preds = %._crit_edge14, %0
  %match = phi i1 [ false, %0 ], [ %tmp_7, %._crit_edge14 ] ; [#uses=1 type=i1]
  %i_load = load i32* %i, !dbg !2213              ; [#uses=2 type=i32] [debug line = 25:5]
  %tmp_1 = icmp slt i32 %i_load, %length_read, !dbg !2212 ; [#uses=1 type=i1] [debug line = 16:8]
  br i1 %tmp_1, label %_ifconv, label %3, !dbg !2212 ; [debug line = 16:8]

_ifconv:                                          ; preds = %1
  %tmp_8 = call i32 (...)* @_ssdm_op_SpecRegionBegin([12 x i8]* @p_str4), !dbg !2214 ; [#uses=1 type=i32] [debug line = 16:29]
  call void (...)* @_ssdm_op_SpecPipeline(i32 -1, i32 1, i32 1, i32 0, [1 x i8]* @p_str1) nounwind, !dbg !2215 ; [debug line = 17:1]
  %empty = call { i64, i8, i8, i2, i1, i5, i1 } @_ssdm_op_Read.axis.volatile.i64P.i8P.i8P.i2P.i1P.i5P.i1P(i64* %A_data_V, i8* %A_keep_V, i8* %A_strb_V, i2* %A_user_V, i1* %A_last_V, i5* %A_id_V, i1* %A_dest_V) ; [#uses=6 type={ i64, i8, i8, i2, i1, i5, i1 }]
  %A_temp_data_V = extractvalue { i64, i8, i8, i2, i1, i5, i1 } %empty, 0 ; [#uses=2 type=i64]
  %A_temp_keep_V = extractvalue { i64, i8, i8, i2, i1, i5, i1 } %empty, 1 ; [#uses=1 type=i8]
  %A_temp_strb_V = extractvalue { i64, i8, i8, i2, i1, i5, i1 } %empty, 2 ; [#uses=1 type=i8]
  %A_temp_user_V = extractvalue { i64, i8, i8, i2, i1, i5, i1 } %empty, 3 ; [#uses=1 type=i2]
  %A_temp_id_V = extractvalue { i64, i8, i8, i2, i1, i5, i1 } %empty, 5 ; [#uses=1 type=i5]
  %A_temp_dest_V = extractvalue { i64, i8, i8, i2, i1, i5, i1 } %empty, 6 ; [#uses=1 type=i1]
  call void @llvm.dbg.value(metadata !{i64 %A_temp_data_V}, i64 0, metadata !2216), !dbg !2218 ; [debug line = 172:10@90:10@18:2] [debug variable = A_temp.data.V]
  call void @llvm.dbg.value(metadata !{i8 %A_temp_keep_V}, i64 0, metadata !2225), !dbg !2226 ; [debug line = 277:10@90:10@18:2] [debug variable = A_temp.keep.V]
  call void @llvm.dbg.value(metadata !{i8 %A_temp_strb_V}, i64 0, metadata !2229), !dbg !2226 ; [debug line = 277:10@90:10@18:2] [debug variable = A_temp.strb.V]
  call void @llvm.dbg.value(metadata !{i2 %A_temp_user_V}, i64 0, metadata !2230), !dbg !2231 ; [debug line = 277:10@90:10@18:2] [debug variable = A_temp.user.V]
  call void @llvm.dbg.value(metadata !{i5 %A_temp_id_V}, i64 0, metadata !2234), !dbg !2235 ; [debug line = 277:10@90:10@18:2] [debug variable = A_temp.id.V]
  call void @llvm.dbg.value(metadata !{i1 %A_temp_dest_V}, i64 0, metadata !2238), !dbg !2239 ; [debug line = 277:10@90:10@18:2] [debug variable = A_temp.dest.V]
  %tmp_3 = trunc i64 %A_temp_data_V to i32, !dbg !2242 ; [#uses=1 type=i32] [debug line = 1664:64@19:46]
  %tmp_5 = and i32 %tmp_2, %tmp_3, !dbg !2243     ; [#uses=1 type=i32] [debug line = 19:46]
  %tmp_6 = icmp eq i32 %tmp_5, %tmp_2, !dbg !2244 ; [#uses=1 type=i1] [debug line = 19:73]
  %tmp_7 = or i1 %tmp_6, %match                   ; [#uses=2 type=i1]
  br i1 %tmp_7, label %2, label %._crit_edge14, !dbg !2245 ; [debug line = 21:3]

; <label>:2                                       ; preds = %_ifconv
  %samples_load = load i32* %samples, !dbg !2246  ; [#uses=2 type=i32] [debug line = 24:5]
  %A_temp_last_V = icmp eq i32 %samples_load, %tmp, !dbg !2204 ; [#uses=1 type=i1] [debug line = 22:5]
  call void @llvm.dbg.value(metadata !{i1 %A_temp_last_V}, i64 0, metadata !2247), !dbg !2249 ; [debug line = 245:56@22:5] [debug variable = val]
  call void @llvm.dbg.value(metadata !{i1 %A_temp_last_V}, i64 0, metadata !2250), !dbg !2252 ; [debug line = 245:56@245:78@22:5] [debug variable = val]
  call void @llvm.dbg.value(metadata !{i1 %A_temp_last_V}, i64 0, metadata !2254), !dbg !2255 ; [debug line = 277:10@22:5] [debug variable = A_temp.last.V]
  call void @_ssdm_op_Write.axis.volatile.i64P.i8P.i8P.i2P.i1P.i5P.i1P(i64* %B_data_V, i8* %B_keep_V, i8* %B_strb_V, i2* %B_user_V, i1* %B_last_V, i5* %B_id_V, i1* %B_dest_V, i64 %A_temp_data_V, i8 %A_temp_keep_V, i8 %A_temp_strb_V, i2 %A_temp_user_V, i1 %A_temp_last_V, i5 %A_temp_id_V, i1 %A_temp_dest_V)
  %samples_1 = add nsw i32 %samples_load, 1, !dbg !2246 ; [#uses=1 type=i32] [debug line = 24:5]
  call void @llvm.dbg.value(metadata !{i32 %samples_1}, i64 0, metadata !40), !dbg !2246 ; [debug line = 24:5] [debug variable = samples]
  %i_1 = add nsw i32 %i_load, 1, !dbg !2213       ; [#uses=1 type=i32] [debug line = 25:5]
  call void @llvm.dbg.value(metadata !{i32 %i_1}, i64 0, metadata !2065), !dbg !2213 ; [debug line = 25:5] [debug variable = i]
  store i32 %i_1, i32* %i, !dbg !2213             ; [debug line = 25:5]
  store i32 %samples_1, i32* %samples, !dbg !2246 ; [debug line = 24:5]
  br label %._crit_edge14, !dbg !2256             ; [debug line = 26:3]

._crit_edge14:                                    ; preds = %2, %_ifconv
  %empty_3 = call i32 (...)* @_ssdm_op_SpecRegionEnd([12 x i8]* @p_str4, i32 %tmp_8), !dbg !2257 ; [#uses=0 type=i32] [debug line = 27:2]
  br label %1, !dbg !2257                         ; [debug line = 27:2]

; <label>:3                                       ; preds = %1
  ret void, !dbg !2258                            ; [debug line = 28:1]
}

; [#uses=27]
declare void @llvm.dbg.value(metadata, i64, metadata) nounwind readnone

; [#uses=2]
declare void @llvm.dbg.declare(metadata, metadata) nounwind readnone

; [#uses=1]
define weak void @_ssdm_op_Write.axis.volatile.i64P.i8P.i8P.i2P.i1P.i5P.i1P(i64*, i8*, i8*, i2*, i1*, i5*, i1*, i64, i8, i8, i2, i1, i5, i1) {
entry:
  store i64 %7, i64* %0
  store i8 %8, i8* %1
  store i8 %9, i8* %2
  store i2 %10, i2* %3
  store i1 %11, i1* %4
  store i5 %12, i5* %5
  store i1 %13, i1* %6
  ret void
}

; [#uses=1]
define weak void @_ssdm_op_SpecTopModule(...) {
entry:
  ret void
}

; [#uses=1]
define weak i32 @_ssdm_op_SpecRegionEnd(...) {
entry:
  ret i32 0
}

; [#uses=1]
define weak i32 @_ssdm_op_SpecRegionBegin(...) {
entry:
  ret i32 0
}

; [#uses=1]
define weak void @_ssdm_op_SpecPipeline(...) nounwind {
entry:
  ret void
}

; [#uses=5]
define weak void @_ssdm_op_SpecInterface(...) nounwind {
entry:
  ret void
}

; [#uses=16]
define weak void @_ssdm_op_SpecBitsMap(...) {
entry:
  ret void
}

; [#uses=1]
define weak i64 @_ssdm_op_Read.s_axilite.i64(i64) {
entry:
  ret i64 %0
}

; [#uses=1]
define weak i32 @_ssdm_op_Read.s_axilite.i32(i32) {
entry:
  ret i32 %0
}

; [#uses=1]
define weak { i64, i8, i8, i2, i1, i5, i1 } @_ssdm_op_Read.axis.volatile.i64P.i8P.i8P.i2P.i1P.i5P.i1P(i64*, i8*, i8*, i2*, i1*, i5*, i1*) {
entry:
  %empty = load i64* %0                           ; [#uses=1 type=i64]
  %empty_4 = load i8* %1                          ; [#uses=1 type=i8]
  %empty_5 = load i8* %2                          ; [#uses=1 type=i8]
  %empty_6 = load i2* %3                          ; [#uses=1 type=i2]
  %empty_7 = load i1* %4                          ; [#uses=1 type=i1]
  %empty_8 = load i5* %5                          ; [#uses=1 type=i5]
  %empty_9 = load i1* %6                          ; [#uses=1 type=i1]
  %mrv_0 = insertvalue { i64, i8, i8, i2, i1, i5, i1 } undef, i64 %empty, 0 ; [#uses=1 type={ i64, i8, i8, i2, i1, i5, i1 }]
  %mrv1 = insertvalue { i64, i8, i8, i2, i1, i5, i1 } %mrv_0, i8 %empty_4, 1 ; [#uses=1 type={ i64, i8, i8, i2, i1, i5, i1 }]
  %mrv2 = insertvalue { i64, i8, i8, i2, i1, i5, i1 } %mrv1, i8 %empty_5, 2 ; [#uses=1 type={ i64, i8, i8, i2, i1, i5, i1 }]
  %mrv3 = insertvalue { i64, i8, i8, i2, i1, i5, i1 } %mrv2, i2 %empty_6, 3 ; [#uses=1 type={ i64, i8, i8, i2, i1, i5, i1 }]
  %mrv4 = insertvalue { i64, i8, i8, i2, i1, i5, i1 } %mrv3, i1 %empty_7, 4 ; [#uses=1 type={ i64, i8, i8, i2, i1, i5, i1 }]
  %mrv5 = insertvalue { i64, i8, i8, i2, i1, i5, i1 } %mrv4, i5 %empty_8, 5 ; [#uses=1 type={ i64, i8, i8, i2, i1, i5, i1 }]
  %mrv6 = insertvalue { i64, i8, i8, i2, i1, i5, i1 } %mrv5, i1 %empty_9, 6 ; [#uses=1 type={ i64, i8, i8, i2, i1, i5, i1 }]
  ret { i64, i8, i8, i2, i1, i5, i1 } %mrv6
}

; [#uses=0]
declare i32 @_ssdm_op_PartSelect.i32.i64.i32.i32(i64, i32, i32) nounwind readnone

; [#uses=1]
declare void @_GLOBAL__I_a() nounwind section ".text.startup"

!opencl.kernels = !{!0, !7, !7, !13, !13, !13, !19, !22, !25, !27, !29, !31, !13, !13, !13, !13, !13, !13, !13, !13, !13, !13, !13, !13, !13, !13, !13, !13, !13, !13, !13, !13}
!hls.encrypted.func = !{}
!llvm.map.gv = !{!33}

!0 = metadata !{null, metadata !1, metadata !2, metadata !3, metadata !4, metadata !5, metadata !6}
!1 = metadata !{metadata !"kernel_arg_addr_space", i32 1, i32 1, i32 0, i32 0}
!2 = metadata !{metadata !"kernel_arg_access_qual", metadata !"none", metadata !"none", metadata !"none", metadata !"none"}
!3 = metadata !{metadata !"kernel_arg_type", metadata !"ap_axis<64, 2, 5, 1>*", metadata !"ap_axis<64, 2, 5, 1>*", metadata !"ap_int<64>", metadata !"int"}
!4 = metadata !{metadata !"kernel_arg_type_qual", metadata !"", metadata !"", metadata !"", metadata !""}
!5 = metadata !{metadata !"kernel_arg_name", metadata !"A", metadata !"B", metadata !"data_compare", metadata !"length"}
!6 = metadata !{metadata !"reqd_work_group_size", i32 1, i32 1, i32 1}
!7 = metadata !{null, metadata !8, metadata !9, metadata !10, metadata !11, metadata !12, metadata !6}
!8 = metadata !{metadata !"kernel_arg_addr_space", i32 0}
!9 = metadata !{metadata !"kernel_arg_access_qual", metadata !"none"}
!10 = metadata !{metadata !"kernel_arg_type", metadata !"_Bool"}
!11 = metadata !{metadata !"kernel_arg_type_qual", metadata !""}
!12 = metadata !{metadata !"kernel_arg_name", metadata !"val"}
!13 = metadata !{null, metadata !14, metadata !15, metadata !16, metadata !17, metadata !18, metadata !6}
!14 = metadata !{metadata !"kernel_arg_addr_space"}
!15 = metadata !{metadata !"kernel_arg_access_qual"}
!16 = metadata !{metadata !"kernel_arg_type"}
!17 = metadata !{metadata !"kernel_arg_type_qual"}
!18 = metadata !{metadata !"kernel_arg_name"}
!19 = metadata !{null, metadata !8, metadata !9, metadata !20, metadata !11, metadata !21, metadata !6}
!20 = metadata !{metadata !"kernel_arg_type", metadata !"const ap_uint<1> &"}
!21 = metadata !{metadata !"kernel_arg_name", metadata !"op2"}
!22 = metadata !{null, metadata !8, metadata !9, metadata !23, metadata !11, metadata !24, metadata !6}
!23 = metadata !{metadata !"kernel_arg_type", metadata !"const struct ap_axis<64, 2, 5, 1> &"}
!24 = metadata !{metadata !"kernel_arg_name", metadata !""}
!25 = metadata !{null, metadata !8, metadata !9, metadata !26, metadata !11, metadata !21, metadata !6}
!26 = metadata !{metadata !"kernel_arg_type", metadata !"const ap_uint<5> &"}
!27 = metadata !{null, metadata !8, metadata !9, metadata !28, metadata !11, metadata !21, metadata !6}
!28 = metadata !{metadata !"kernel_arg_type", metadata !"const ap_uint<2> &"}
!29 = metadata !{null, metadata !8, metadata !9, metadata !30, metadata !11, metadata !21, metadata !6}
!30 = metadata !{metadata !"kernel_arg_type", metadata !"const ap_uint<8> &"}
!31 = metadata !{null, metadata !8, metadata !9, metadata !32, metadata !11, metadata !21, metadata !6}
!32 = metadata !{metadata !"kernel_arg_type", metadata !"const ap_int<64> &"}
!33 = metadata !{metadata !34, [1 x i32]* @llvm_global_ctors_0}
!34 = metadata !{metadata !35}
!35 = metadata !{i32 0, i32 31, metadata !36}
!36 = metadata !{metadata !37}
!37 = metadata !{metadata !"llvm.global_ctors.0", metadata !38, metadata !"", i32 0, i32 31}
!38 = metadata !{metadata !39}
!39 = metadata !{i32 0, i32 0, i32 1}
!40 = metadata !{i32 786688, metadata !41, metadata !"samples", metadata !43, i32 12, metadata !72, i32 0, i32 0} ; [ DW_TAG_auto_variable ]
!41 = metadata !{i32 786443, metadata !42, i32 4, i32 101, metadata !43, i32 0} ; [ DW_TAG_lexical_block ]
!42 = metadata !{i32 786478, i32 0, metadata !43, metadata !"trace_cntrl", metadata !"trace_cntrl", metadata !"_Z11trace_cntrlP7ap_axisILi64ELi2ELi5ELi1EES1_6ap_intILi64EEi", metadata !43, i32 4, metadata !44, i1 false, i1 true, i32 0, i32 0, null, i32 256, i1 false, null, null, null, metadata !68, i32 4} ; [ DW_TAG_subprogram ]
!43 = metadata !{i32 786473, metadata !"trace_cntrl/trace_cntrl.cpp", metadata !"/home/matti/TD/VHDL/PYNQ/boards/ip/hls", null} ; [ DW_TAG_file_type ]
!44 = metadata !{i32 786453, i32 0, metadata !"", i32 0, i32 0, i64 0, i64 0, i64 0, i32 0, null, metadata !45, i32 0, i32 0} ; [ DW_TAG_subroutine_type ]
!45 = metadata !{null, metadata !46, metadata !46, metadata !51, metadata !72}
!46 = metadata !{i32 786447, null, metadata !"", null, i32 0, i64 64, i64 64, i64 0, i32 0, metadata !47} ; [ DW_TAG_pointer_type ]
!47 = metadata !{i32 786434, null, metadata !"ap_axis<64, 2, 5, 1>", metadata !48, i32 90, i64 128, i64 64, i32 0, i32 0, null, metadata !49, i32 0, null, metadata !2060} ; [ DW_TAG_class_type ]
!48 = metadata !{i32 786473, metadata !"/opt/Xilinx/Vivado_HLS/2016.1/common/technology/autopilot/ap_axi_sdata.h", metadata !"/home/matti/TD/VHDL/PYNQ/boards/ip/hls", null} ; [ DW_TAG_file_type ]
!49 = metadata !{metadata !50, metadata !415, metadata !1026, metadata !1027, metadata !1390, metadata !1719, metadata !2049, metadata !2050, metadata !2054}
!50 = metadata !{i32 786445, metadata !47, metadata !"data", metadata !48, i32 91, i64 64, i64 64, i64 0, i32 0, metadata !51} ; [ DW_TAG_member ]
!51 = metadata !{i32 786434, null, metadata !"ap_int<64>", metadata !52, i32 73, i64 64, i64 64, i32 0, i32 0, null, metadata !53, i32 0, null, metadata !414} ; [ DW_TAG_class_type ]
!52 = metadata !{i32 786473, metadata !"/opt/Xilinx/Vivado_HLS/2016.1/common/technology/autopilot/ap_int.h", metadata !"/home/matti/TD/VHDL/PYNQ/boards/ip/hls", null} ; [ DW_TAG_file_type ]
!53 = metadata !{metadata !54, metadata !336, metadata !340, metadata !346, metadata !352, metadata !355, metadata !358, metadata !361, metadata !364, metadata !367, metadata !370, metadata !373, metadata !376, metadata !379, metadata !382, metadata !385, metadata !388, metadata !391, metadata !394, metadata !397, metadata !400, metadata !404, metadata !407, metadata !411}
!54 = metadata !{i32 786460, metadata !51, null, metadata !52, i32 0, i64 0, i64 0, i64 0, i32 0, metadata !55} ; [ DW_TAG_inheritance ]
!55 = metadata !{i32 786434, null, metadata !"ap_int_base<64, true, true>", metadata !56, i32 1397, i64 64, i64 64, i32 0, i32 0, null, metadata !57, i32 0, null, metadata !333} ; [ DW_TAG_class_type ]
!56 = metadata !{i32 786473, metadata !"/opt/Xilinx/Vivado_HLS/2016.1/common/technology/autopilot/ap_int_syn.h", metadata !"/home/matti/TD/VHDL/PYNQ/boards/ip/hls", null} ; [ DW_TAG_file_type ]
!57 = metadata !{metadata !58, metadata !75, metadata !79, metadata !87, metadata !93, metadata !96, metadata !100, metadata !104, metadata !108, metadata !112, metadata !115, metadata !119, metadata !123, metadata !127, metadata !132, metadata !137, metadata !141, metadata !145, metadata !151, metadata !154, metadata !158, metadata !161, metadata !164, metadata !165, metadata !169, metadata !172, metadata !175, metadata !178, metadata !181, metadata !184, metadata !187, metadata !190, metadata !193, metadata !196, metadata !199, metadata !202, metadata !212, metadata !215, metadata !218, metadata !221, metadata !224, metadata !227, metadata !230, metadata !233, metadata !236, metadata !239, metadata !242, metadata !245, metadata !248, metadata !249, metadata !253, metadata !256, metadata !257, metadata !258, metadata !259, metadata !260, metadata !261, metadata !264, metadata !265, metadata !268, metadata !269, metadata !270, metadata !271, metadata !272, metadata !273, metadata !276, metadata !277, metadata !278, metadata !281, metadata !282, metadata !285, metadata !286, metadata !287, metadata !291, metadata !292, metadata !295, metadata !296, metadata !300, metadata !301, metadata !302, metadata !303, metadata !306, metadata !307, metadata !308, metadata !309, metadata !310, metadata !311, metadata !312, metadata !313, metadata !314, metadata !315, metadata !316, metadata !317, metadata !327, metadata !330}
!58 = metadata !{i32 786460, metadata !55, null, metadata !56, i32 0, i64 0, i64 0, i64 0, i32 0, metadata !59} ; [ DW_TAG_inheritance ]
!59 = metadata !{i32 786434, null, metadata !"ssdm_int<64 + 1024 * 0, true>", metadata !60, i32 68, i64 64, i64 64, i32 0, i32 0, null, metadata !61, i32 0, null, metadata !70} ; [ DW_TAG_class_type ]
!60 = metadata !{i32 786473, metadata !"/opt/Xilinx/Vivado_HLS/2016.1/common/technology/autopilot/etc/autopilot_dt.def", metadata !"/home/matti/TD/VHDL/PYNQ/boards/ip/hls", null} ; [ DW_TAG_file_type ]
!61 = metadata !{metadata !62, metadata !64}
!62 = metadata !{i32 786445, metadata !59, metadata !"V", metadata !60, i32 68, i64 64, i64 64, i64 0, i32 0, metadata !63} ; [ DW_TAG_member ]
!63 = metadata !{i32 786468, null, metadata !"int64", null, i32 0, i64 64, i64 64, i64 0, i32 0, i32 5} ; [ DW_TAG_base_type ]
!64 = metadata !{i32 786478, i32 0, metadata !59, metadata !"ssdm_int", metadata !"ssdm_int", metadata !"", metadata !60, i32 68, metadata !65, i1 false, i1 false, i32 0, i32 0, null, i32 256, i1 false, null, null, i32 0, metadata !68, i32 68} ; [ DW_TAG_subprogram ]
!65 = metadata !{i32 786453, i32 0, metadata !"", i32 0, i32 0, i64 0, i64 0, i64 0, i32 0, null, metadata !66, i32 0, i32 0} ; [ DW_TAG_subroutine_type ]
!66 = metadata !{null, metadata !67}
!67 = metadata !{i32 786447, i32 0, metadata !"", i32 0, i32 0, i64 64, i64 64, i64 0, i32 64, metadata !59} ; [ DW_TAG_pointer_type ]
!68 = metadata !{metadata !69}
!69 = metadata !{i32 786468}                      ; [ DW_TAG_base_type ]
!70 = metadata !{metadata !71, metadata !73}
!71 = metadata !{i32 786480, null, metadata !"_AP_N", metadata !72, i64 64, null, i32 0, i32 0} ; [ DW_TAG_template_value_parameter ]
!72 = metadata !{i32 786468, null, metadata !"int", null, i32 0, i64 32, i64 32, i64 0, i32 0, i32 5} ; [ DW_TAG_base_type ]
!73 = metadata !{i32 786480, null, metadata !"_AP_S", metadata !74, i64 1, null, i32 0, i32 0} ; [ DW_TAG_template_value_parameter ]
!74 = metadata !{i32 786468, null, metadata !"bool", null, i32 0, i64 8, i64 8, i64 0, i32 0, i32 2} ; [ DW_TAG_base_type ]
!75 = metadata !{i32 786478, i32 0, metadata !55, metadata !"ap_int_base", metadata !"ap_int_base", metadata !"", metadata !56, i32 1438, metadata !76, i1 false, i1 false, i32 0, i32 0, null, i32 256, i1 false, null, null, i32 0, metadata !68, i32 1438} ; [ DW_TAG_subprogram ]
!76 = metadata !{i32 786453, i32 0, metadata !"", i32 0, i32 0, i64 0, i64 0, i64 0, i32 0, null, metadata !77, i32 0, i32 0} ; [ DW_TAG_subroutine_type ]
!77 = metadata !{null, metadata !78}
!78 = metadata !{i32 786447, i32 0, metadata !"", i32 0, i32 0, i64 64, i64 64, i64 0, i32 64, metadata !55} ; [ DW_TAG_pointer_type ]
!79 = metadata !{i32 786478, i32 0, metadata !55, metadata !"ap_int_base<64, true>", metadata !"ap_int_base<64, true>", metadata !"", metadata !56, i32 1450, metadata !80, i1 false, i1 false, i32 0, i32 0, null, i32 256, i1 false, null, metadata !84, i32 0, metadata !68, i32 1450} ; [ DW_TAG_subprogram ]
!80 = metadata !{i32 786453, i32 0, metadata !"", i32 0, i32 0, i64 0, i64 0, i64 0, i32 0, null, metadata !81, i32 0, i32 0} ; [ DW_TAG_subroutine_type ]
!81 = metadata !{null, metadata !78, metadata !82}
!82 = metadata !{i32 786448, null, null, null, i32 0, i64 0, i64 0, i64 0, i32 0, metadata !83} ; [ DW_TAG_reference_type ]
!83 = metadata !{i32 786470, null, metadata !"", null, i32 0, i64 0, i64 0, i64 0, i32 0, metadata !55} ; [ DW_TAG_const_type ]
!84 = metadata !{metadata !85, metadata !86}
!85 = metadata !{i32 786480, null, metadata !"_AP_W2", metadata !72, i64 64, null, i32 0, i32 0} ; [ DW_TAG_template_value_parameter ]
!86 = metadata !{i32 786480, null, metadata !"_AP_S2", metadata !74, i64 1, null, i32 0, i32 0} ; [ DW_TAG_template_value_parameter ]
!87 = metadata !{i32 786478, i32 0, metadata !55, metadata !"ap_int_base<64, true>", metadata !"ap_int_base<64, true>", metadata !"", metadata !56, i32 1453, metadata !88, i1 false, i1 false, i32 0, i32 0, null, i32 256, i1 false, null, metadata !84, i32 0, metadata !68, i32 1453} ; [ DW_TAG_subprogram ]
!88 = metadata !{i32 786453, i32 0, metadata !"", i32 0, i32 0, i64 0, i64 0, i64 0, i32 0, null, metadata !89, i32 0, i32 0} ; [ DW_TAG_subroutine_type ]
!89 = metadata !{null, metadata !78, metadata !90}
!90 = metadata !{i32 786448, null, null, null, i32 0, i64 0, i64 0, i64 0, i32 0, metadata !91} ; [ DW_TAG_reference_type ]
!91 = metadata !{i32 786470, null, metadata !"", null, i32 0, i64 0, i64 0, i64 0, i32 0, metadata !92} ; [ DW_TAG_const_type ]
!92 = metadata !{i32 786485, null, metadata !"", null, i32 0, i64 0, i64 0, i64 0, i32 0, metadata !55} ; [ DW_TAG_volatile_type ]
!93 = metadata !{i32 786478, i32 0, metadata !55, metadata !"ap_int_base", metadata !"ap_int_base", metadata !"", metadata !56, i32 1460, metadata !94, i1 false, i1 false, i32 0, i32 0, null, i32 384, i1 false, null, null, i32 0, metadata !68, i32 1460} ; [ DW_TAG_subprogram ]
!94 = metadata !{i32 786453, i32 0, metadata !"", i32 0, i32 0, i64 0, i64 0, i64 0, i32 0, null, metadata !95, i32 0, i32 0} ; [ DW_TAG_subroutine_type ]
!95 = metadata !{null, metadata !78, metadata !74}
!96 = metadata !{i32 786478, i32 0, metadata !55, metadata !"ap_int_base", metadata !"ap_int_base", metadata !"", metadata !56, i32 1461, metadata !97, i1 false, i1 false, i32 0, i32 0, null, i32 384, i1 false, null, null, i32 0, metadata !68, i32 1461} ; [ DW_TAG_subprogram ]
!97 = metadata !{i32 786453, i32 0, metadata !"", i32 0, i32 0, i64 0, i64 0, i64 0, i32 0, null, metadata !98, i32 0, i32 0} ; [ DW_TAG_subroutine_type ]
!98 = metadata !{null, metadata !78, metadata !99}
!99 = metadata !{i32 786468, null, metadata !"signed char", null, i32 0, i64 8, i64 8, i64 0, i32 0, i32 6} ; [ DW_TAG_base_type ]
!100 = metadata !{i32 786478, i32 0, metadata !55, metadata !"ap_int_base", metadata !"ap_int_base", metadata !"", metadata !56, i32 1462, metadata !101, i1 false, i1 false, i32 0, i32 0, null, i32 384, i1 false, null, null, i32 0, metadata !68, i32 1462} ; [ DW_TAG_subprogram ]
!101 = metadata !{i32 786453, i32 0, metadata !"", i32 0, i32 0, i64 0, i64 0, i64 0, i32 0, null, metadata !102, i32 0, i32 0} ; [ DW_TAG_subroutine_type ]
!102 = metadata !{null, metadata !78, metadata !103}
!103 = metadata !{i32 786468, null, metadata !"unsigned char", null, i32 0, i64 8, i64 8, i64 0, i32 0, i32 8} ; [ DW_TAG_base_type ]
!104 = metadata !{i32 786478, i32 0, metadata !55, metadata !"ap_int_base", metadata !"ap_int_base", metadata !"", metadata !56, i32 1463, metadata !105, i1 false, i1 false, i32 0, i32 0, null, i32 384, i1 false, null, null, i32 0, metadata !68, i32 1463} ; [ DW_TAG_subprogram ]
!105 = metadata !{i32 786453, i32 0, metadata !"", i32 0, i32 0, i64 0, i64 0, i64 0, i32 0, null, metadata !106, i32 0, i32 0} ; [ DW_TAG_subroutine_type ]
!106 = metadata !{null, metadata !78, metadata !107}
!107 = metadata !{i32 786468, null, metadata !"short", null, i32 0, i64 16, i64 16, i64 0, i32 0, i32 5} ; [ DW_TAG_base_type ]
!108 = metadata !{i32 786478, i32 0, metadata !55, metadata !"ap_int_base", metadata !"ap_int_base", metadata !"", metadata !56, i32 1464, metadata !109, i1 false, i1 false, i32 0, i32 0, null, i32 384, i1 false, null, null, i32 0, metadata !68, i32 1464} ; [ DW_TAG_subprogram ]
!109 = metadata !{i32 786453, i32 0, metadata !"", i32 0, i32 0, i64 0, i64 0, i64 0, i32 0, null, metadata !110, i32 0, i32 0} ; [ DW_TAG_subroutine_type ]
!110 = metadata !{null, metadata !78, metadata !111}
!111 = metadata !{i32 786468, null, metadata !"unsigned short", null, i32 0, i64 16, i64 16, i64 0, i32 0, i32 7} ; [ DW_TAG_base_type ]
!112 = metadata !{i32 786478, i32 0, metadata !55, metadata !"ap_int_base", metadata !"ap_int_base", metadata !"", metadata !56, i32 1465, metadata !113, i1 false, i1 false, i32 0, i32 0, null, i32 384, i1 false, null, null, i32 0, metadata !68, i32 1465} ; [ DW_TAG_subprogram ]
!113 = metadata !{i32 786453, i32 0, metadata !"", i32 0, i32 0, i64 0, i64 0, i64 0, i32 0, null, metadata !114, i32 0, i32 0} ; [ DW_TAG_subroutine_type ]
!114 = metadata !{null, metadata !78, metadata !72}
!115 = metadata !{i32 786478, i32 0, metadata !55, metadata !"ap_int_base", metadata !"ap_int_base", metadata !"", metadata !56, i32 1466, metadata !116, i1 false, i1 false, i32 0, i32 0, null, i32 384, i1 false, null, null, i32 0, metadata !68, i32 1466} ; [ DW_TAG_subprogram ]
!116 = metadata !{i32 786453, i32 0, metadata !"", i32 0, i32 0, i64 0, i64 0, i64 0, i32 0, null, metadata !117, i32 0, i32 0} ; [ DW_TAG_subroutine_type ]
!117 = metadata !{null, metadata !78, metadata !118}
!118 = metadata !{i32 786468, null, metadata !"unsigned int", null, i32 0, i64 32, i64 32, i64 0, i32 0, i32 7} ; [ DW_TAG_base_type ]
!119 = metadata !{i32 786478, i32 0, metadata !55, metadata !"ap_int_base", metadata !"ap_int_base", metadata !"", metadata !56, i32 1467, metadata !120, i1 false, i1 false, i32 0, i32 0, null, i32 384, i1 false, null, null, i32 0, metadata !68, i32 1467} ; [ DW_TAG_subprogram ]
!120 = metadata !{i32 786453, i32 0, metadata !"", i32 0, i32 0, i64 0, i64 0, i64 0, i32 0, null, metadata !121, i32 0, i32 0} ; [ DW_TAG_subroutine_type ]
!121 = metadata !{null, metadata !78, metadata !122}
!122 = metadata !{i32 786468, null, metadata !"long int", null, i32 0, i64 64, i64 64, i64 0, i32 0, i32 5} ; [ DW_TAG_base_type ]
!123 = metadata !{i32 786478, i32 0, metadata !55, metadata !"ap_int_base", metadata !"ap_int_base", metadata !"", metadata !56, i32 1468, metadata !124, i1 false, i1 false, i32 0, i32 0, null, i32 384, i1 false, null, null, i32 0, metadata !68, i32 1468} ; [ DW_TAG_subprogram ]
!124 = metadata !{i32 786453, i32 0, metadata !"", i32 0, i32 0, i64 0, i64 0, i64 0, i32 0, null, metadata !125, i32 0, i32 0} ; [ DW_TAG_subroutine_type ]
!125 = metadata !{null, metadata !78, metadata !126}
!126 = metadata !{i32 786468, null, metadata !"long unsigned int", null, i32 0, i64 64, i64 64, i64 0, i32 0, i32 7} ; [ DW_TAG_base_type ]
!127 = metadata !{i32 786478, i32 0, metadata !55, metadata !"ap_int_base", metadata !"ap_int_base", metadata !"", metadata !56, i32 1469, metadata !128, i1 false, i1 false, i32 0, i32 0, null, i32 384, i1 false, null, null, i32 0, metadata !68, i32 1469} ; [ DW_TAG_subprogram ]
!128 = metadata !{i32 786453, i32 0, metadata !"", i32 0, i32 0, i64 0, i64 0, i64 0, i32 0, null, metadata !129, i32 0, i32 0} ; [ DW_TAG_subroutine_type ]
!129 = metadata !{null, metadata !78, metadata !130}
!130 = metadata !{i32 786454, null, metadata !"ap_slong", metadata !56, i32 111, i64 0, i64 0, i64 0, i32 0, metadata !131} ; [ DW_TAG_typedef ]
!131 = metadata !{i32 786468, null, metadata !"long long int", null, i32 0, i64 64, i64 64, i64 0, i32 0, i32 5} ; [ DW_TAG_base_type ]
!132 = metadata !{i32 786478, i32 0, metadata !55, metadata !"ap_int_base", metadata !"ap_int_base", metadata !"", metadata !56, i32 1470, metadata !133, i1 false, i1 false, i32 0, i32 0, null, i32 384, i1 false, null, null, i32 0, metadata !68, i32 1470} ; [ DW_TAG_subprogram ]
!133 = metadata !{i32 786453, i32 0, metadata !"", i32 0, i32 0, i64 0, i64 0, i64 0, i32 0, null, metadata !134, i32 0, i32 0} ; [ DW_TAG_subroutine_type ]
!134 = metadata !{null, metadata !78, metadata !135}
!135 = metadata !{i32 786454, null, metadata !"ap_ulong", metadata !56, i32 110, i64 0, i64 0, i64 0, i32 0, metadata !136} ; [ DW_TAG_typedef ]
!136 = metadata !{i32 786468, null, metadata !"long long unsigned int", null, i32 0, i64 64, i64 64, i64 0, i32 0, i32 7} ; [ DW_TAG_base_type ]
!137 = metadata !{i32 786478, i32 0, metadata !55, metadata !"ap_int_base", metadata !"ap_int_base", metadata !"", metadata !56, i32 1471, metadata !138, i1 false, i1 false, i32 0, i32 0, null, i32 384, i1 false, null, null, i32 0, metadata !68, i32 1471} ; [ DW_TAG_subprogram ]
!138 = metadata !{i32 786453, i32 0, metadata !"", i32 0, i32 0, i64 0, i64 0, i64 0, i32 0, null, metadata !139, i32 0, i32 0} ; [ DW_TAG_subroutine_type ]
!139 = metadata !{null, metadata !78, metadata !140}
!140 = metadata !{i32 786468, null, metadata !"float", null, i32 0, i64 32, i64 32, i64 0, i32 0, i32 4} ; [ DW_TAG_base_type ]
!141 = metadata !{i32 786478, i32 0, metadata !55, metadata !"ap_int_base", metadata !"ap_int_base", metadata !"", metadata !56, i32 1472, metadata !142, i1 false, i1 false, i32 0, i32 0, null, i32 384, i1 false, null, null, i32 0, metadata !68, i32 1472} ; [ DW_TAG_subprogram ]
!142 = metadata !{i32 786453, i32 0, metadata !"", i32 0, i32 0, i64 0, i64 0, i64 0, i32 0, null, metadata !143, i32 0, i32 0} ; [ DW_TAG_subroutine_type ]
!143 = metadata !{null, metadata !78, metadata !144}
!144 = metadata !{i32 786468, null, metadata !"double", null, i32 0, i64 64, i64 64, i64 0, i32 0, i32 4} ; [ DW_TAG_base_type ]
!145 = metadata !{i32 786478, i32 0, metadata !55, metadata !"ap_int_base", metadata !"ap_int_base", metadata !"", metadata !56, i32 1499, metadata !146, i1 false, i1 false, i32 0, i32 0, null, i32 256, i1 false, null, null, i32 0, metadata !68, i32 1499} ; [ DW_TAG_subprogram ]
!146 = metadata !{i32 786453, i32 0, metadata !"", i32 0, i32 0, i64 0, i64 0, i64 0, i32 0, null, metadata !147, i32 0, i32 0} ; [ DW_TAG_subroutine_type ]
!147 = metadata !{null, metadata !78, metadata !148}
!148 = metadata !{i32 786447, null, metadata !"", null, i32 0, i64 64, i64 64, i64 0, i32 0, metadata !149} ; [ DW_TAG_pointer_type ]
!149 = metadata !{i32 786470, null, metadata !"", null, i32 0, i64 0, i64 0, i64 0, i32 0, metadata !150} ; [ DW_TAG_const_type ]
!150 = metadata !{i32 786468, null, metadata !"char", null, i32 0, i64 8, i64 8, i64 0, i32 0, i32 6} ; [ DW_TAG_base_type ]
!151 = metadata !{i32 786478, i32 0, metadata !55, metadata !"ap_int_base", metadata !"ap_int_base", metadata !"", metadata !56, i32 1506, metadata !152, i1 false, i1 false, i32 0, i32 0, null, i32 256, i1 false, null, null, i32 0, metadata !68, i32 1506} ; [ DW_TAG_subprogram ]
!152 = metadata !{i32 786453, i32 0, metadata !"", i32 0, i32 0, i64 0, i64 0, i64 0, i32 0, null, metadata !153, i32 0, i32 0} ; [ DW_TAG_subroutine_type ]
!153 = metadata !{null, metadata !78, metadata !148, metadata !99}
!154 = metadata !{i32 786478, i32 0, metadata !55, metadata !"read", metadata !"read", metadata !"_ZNV11ap_int_baseILi64ELb1ELb1EE4readEv", metadata !56, i32 1527, metadata !155, i1 false, i1 false, i32 0, i32 0, null, i32 256, i1 false, null, null, i32 0, metadata !68, i32 1527} ; [ DW_TAG_subprogram ]
!155 = metadata !{i32 786453, i32 0, metadata !"", i32 0, i32 0, i64 0, i64 0, i64 0, i32 0, null, metadata !156, i32 0, i32 0} ; [ DW_TAG_subroutine_type ]
!156 = metadata !{metadata !55, metadata !157}
!157 = metadata !{i32 786447, i32 0, metadata !"", i32 0, i32 0, i64 64, i64 64, i64 0, i32 64, metadata !92} ; [ DW_TAG_pointer_type ]
!158 = metadata !{i32 786478, i32 0, metadata !55, metadata !"write", metadata !"write", metadata !"_ZNV11ap_int_baseILi64ELb1ELb1EE5writeERKS0_", metadata !56, i32 1533, metadata !159, i1 false, i1 false, i32 0, i32 0, null, i32 256, i1 false, null, null, i32 0, metadata !68, i32 1533} ; [ DW_TAG_subprogram ]
!159 = metadata !{i32 786453, i32 0, metadata !"", i32 0, i32 0, i64 0, i64 0, i64 0, i32 0, null, metadata !160, i32 0, i32 0} ; [ DW_TAG_subroutine_type ]
!160 = metadata !{null, metadata !157, metadata !82}
!161 = metadata !{i32 786478, i32 0, metadata !55, metadata !"operator=", metadata !"operator=", metadata !"_ZNV11ap_int_baseILi64ELb1ELb1EEaSERVKS0_", metadata !56, i32 1545, metadata !162, i1 false, i1 false, i32 0, i32 0, null, i32 256, i1 false, null, null, i32 0, metadata !68, i32 1545} ; [ DW_TAG_subprogram ]
!162 = metadata !{i32 786453, i32 0, metadata !"", i32 0, i32 0, i64 0, i64 0, i64 0, i32 0, null, metadata !163, i32 0, i32 0} ; [ DW_TAG_subroutine_type ]
!163 = metadata !{null, metadata !157, metadata !90}
!164 = metadata !{i32 786478, i32 0, metadata !55, metadata !"operator=", metadata !"operator=", metadata !"_ZNV11ap_int_baseILi64ELb1ELb1EEaSERKS0_", metadata !56, i32 1554, metadata !159, i1 false, i1 false, i32 0, i32 0, null, i32 256, i1 false, null, null, i32 0, metadata !68, i32 1554} ; [ DW_TAG_subprogram ]
!165 = metadata !{i32 786478, i32 0, metadata !55, metadata !"operator=", metadata !"operator=", metadata !"_ZN11ap_int_baseILi64ELb1ELb1EEaSERVKS0_", metadata !56, i32 1577, metadata !166, i1 false, i1 false, i32 0, i32 0, null, i32 256, i1 false, null, null, i32 0, metadata !68, i32 1577} ; [ DW_TAG_subprogram ]
!166 = metadata !{i32 786453, i32 0, metadata !"", i32 0, i32 0, i64 0, i64 0, i64 0, i32 0, null, metadata !167, i32 0, i32 0} ; [ DW_TAG_subroutine_type ]
!167 = metadata !{metadata !168, metadata !78, metadata !90}
!168 = metadata !{i32 786448, null, null, null, i32 0, i64 0, i64 0, i64 0, i32 0, metadata !55} ; [ DW_TAG_reference_type ]
!169 = metadata !{i32 786478, i32 0, metadata !55, metadata !"operator=", metadata !"operator=", metadata !"_ZN11ap_int_baseILi64ELb1ELb1EEaSERKS0_", metadata !56, i32 1582, metadata !170, i1 false, i1 false, i32 0, i32 0, null, i32 256, i1 false, null, null, i32 0, metadata !68, i32 1582} ; [ DW_TAG_subprogram ]
!170 = metadata !{i32 786453, i32 0, metadata !"", i32 0, i32 0, i64 0, i64 0, i64 0, i32 0, null, metadata !171, i32 0, i32 0} ; [ DW_TAG_subroutine_type ]
!171 = metadata !{metadata !168, metadata !78, metadata !82}
!172 = metadata !{i32 786478, i32 0, metadata !55, metadata !"operator=", metadata !"operator=", metadata !"_ZN11ap_int_baseILi64ELb1ELb1EEaSEPKc", metadata !56, i32 1586, metadata !173, i1 false, i1 false, i32 0, i32 0, null, i32 256, i1 false, null, null, i32 0, metadata !68, i32 1586} ; [ DW_TAG_subprogram ]
!173 = metadata !{i32 786453, i32 0, metadata !"", i32 0, i32 0, i64 0, i64 0, i64 0, i32 0, null, metadata !174, i32 0, i32 0} ; [ DW_TAG_subroutine_type ]
!174 = metadata !{metadata !168, metadata !78, metadata !148}
!175 = metadata !{i32 786478, i32 0, metadata !55, metadata !"set", metadata !"set", metadata !"_ZN11ap_int_baseILi64ELb1ELb1EE3setEPKca", metadata !56, i32 1594, metadata !176, i1 false, i1 false, i32 0, i32 0, null, i32 256, i1 false, null, null, i32 0, metadata !68, i32 1594} ; [ DW_TAG_subprogram ]
!176 = metadata !{i32 786453, i32 0, metadata !"", i32 0, i32 0, i64 0, i64 0, i64 0, i32 0, null, metadata !177, i32 0, i32 0} ; [ DW_TAG_subroutine_type ]
!177 = metadata !{metadata !168, metadata !78, metadata !148, metadata !99}
!178 = metadata !{i32 786478, i32 0, metadata !55, metadata !"operator=", metadata !"operator=", metadata !"_ZN11ap_int_baseILi64ELb1ELb1EEaSEa", metadata !56, i32 1608, metadata !179, i1 false, i1 false, i32 0, i32 0, null, i32 256, i1 false, null, null, i32 0, metadata !68, i32 1608} ; [ DW_TAG_subprogram ]
!179 = metadata !{i32 786453, i32 0, metadata !"", i32 0, i32 0, i64 0, i64 0, i64 0, i32 0, null, metadata !180, i32 0, i32 0} ; [ DW_TAG_subroutine_type ]
!180 = metadata !{metadata !168, metadata !78, metadata !99}
!181 = metadata !{i32 786478, i32 0, metadata !55, metadata !"operator=", metadata !"operator=", metadata !"_ZN11ap_int_baseILi64ELb1ELb1EEaSEh", metadata !56, i32 1609, metadata !182, i1 false, i1 false, i32 0, i32 0, null, i32 256, i1 false, null, null, i32 0, metadata !68, i32 1609} ; [ DW_TAG_subprogram ]
!182 = metadata !{i32 786453, i32 0, metadata !"", i32 0, i32 0, i64 0, i64 0, i64 0, i32 0, null, metadata !183, i32 0, i32 0} ; [ DW_TAG_subroutine_type ]
!183 = metadata !{metadata !168, metadata !78, metadata !103}
!184 = metadata !{i32 786478, i32 0, metadata !55, metadata !"operator=", metadata !"operator=", metadata !"_ZN11ap_int_baseILi64ELb1ELb1EEaSEs", metadata !56, i32 1610, metadata !185, i1 false, i1 false, i32 0, i32 0, null, i32 256, i1 false, null, null, i32 0, metadata !68, i32 1610} ; [ DW_TAG_subprogram ]
!185 = metadata !{i32 786453, i32 0, metadata !"", i32 0, i32 0, i64 0, i64 0, i64 0, i32 0, null, metadata !186, i32 0, i32 0} ; [ DW_TAG_subroutine_type ]
!186 = metadata !{metadata !168, metadata !78, metadata !107}
!187 = metadata !{i32 786478, i32 0, metadata !55, metadata !"operator=", metadata !"operator=", metadata !"_ZN11ap_int_baseILi64ELb1ELb1EEaSEt", metadata !56, i32 1611, metadata !188, i1 false, i1 false, i32 0, i32 0, null, i32 256, i1 false, null, null, i32 0, metadata !68, i32 1611} ; [ DW_TAG_subprogram ]
!188 = metadata !{i32 786453, i32 0, metadata !"", i32 0, i32 0, i64 0, i64 0, i64 0, i32 0, null, metadata !189, i32 0, i32 0} ; [ DW_TAG_subroutine_type ]
!189 = metadata !{metadata !168, metadata !78, metadata !111}
!190 = metadata !{i32 786478, i32 0, metadata !55, metadata !"operator=", metadata !"operator=", metadata !"_ZN11ap_int_baseILi64ELb1ELb1EEaSEi", metadata !56, i32 1612, metadata !191, i1 false, i1 false, i32 0, i32 0, null, i32 256, i1 false, null, null, i32 0, metadata !68, i32 1612} ; [ DW_TAG_subprogram ]
!191 = metadata !{i32 786453, i32 0, metadata !"", i32 0, i32 0, i64 0, i64 0, i64 0, i32 0, null, metadata !192, i32 0, i32 0} ; [ DW_TAG_subroutine_type ]
!192 = metadata !{metadata !168, metadata !78, metadata !72}
!193 = metadata !{i32 786478, i32 0, metadata !55, metadata !"operator=", metadata !"operator=", metadata !"_ZN11ap_int_baseILi64ELb1ELb1EEaSEj", metadata !56, i32 1613, metadata !194, i1 false, i1 false, i32 0, i32 0, null, i32 256, i1 false, null, null, i32 0, metadata !68, i32 1613} ; [ DW_TAG_subprogram ]
!194 = metadata !{i32 786453, i32 0, metadata !"", i32 0, i32 0, i64 0, i64 0, i64 0, i32 0, null, metadata !195, i32 0, i32 0} ; [ DW_TAG_subroutine_type ]
!195 = metadata !{metadata !168, metadata !78, metadata !118}
!196 = metadata !{i32 786478, i32 0, metadata !55, metadata !"operator=", metadata !"operator=", metadata !"_ZN11ap_int_baseILi64ELb1ELb1EEaSEx", metadata !56, i32 1614, metadata !197, i1 false, i1 false, i32 0, i32 0, null, i32 256, i1 false, null, null, i32 0, metadata !68, i32 1614} ; [ DW_TAG_subprogram ]
!197 = metadata !{i32 786453, i32 0, metadata !"", i32 0, i32 0, i64 0, i64 0, i64 0, i32 0, null, metadata !198, i32 0, i32 0} ; [ DW_TAG_subroutine_type ]
!198 = metadata !{metadata !168, metadata !78, metadata !130}
!199 = metadata !{i32 786478, i32 0, metadata !55, metadata !"operator=", metadata !"operator=", metadata !"_ZN11ap_int_baseILi64ELb1ELb1EEaSEy", metadata !56, i32 1615, metadata !200, i1 false, i1 false, i32 0, i32 0, null, i32 256, i1 false, null, null, i32 0, metadata !68, i32 1615} ; [ DW_TAG_subprogram ]
!200 = metadata !{i32 786453, i32 0, metadata !"", i32 0, i32 0, i64 0, i64 0, i64 0, i32 0, null, metadata !201, i32 0, i32 0} ; [ DW_TAG_subroutine_type ]
!201 = metadata !{metadata !168, metadata !78, metadata !135}
!202 = metadata !{i32 786478, i32 0, metadata !55, metadata !"operator long long", metadata !"operator long long", metadata !"_ZNK11ap_int_baseILi64ELb1ELb1EEcvxEv", metadata !56, i32 1653, metadata !203, i1 false, i1 false, i32 0, i32 0, null, i32 256, i1 false, null, null, i32 0, metadata !68, i32 1653} ; [ DW_TAG_subprogram ]
!203 = metadata !{i32 786453, i32 0, metadata !"", i32 0, i32 0, i64 0, i64 0, i64 0, i32 0, null, metadata !204, i32 0, i32 0} ; [ DW_TAG_subroutine_type ]
!204 = metadata !{metadata !205, metadata !211}
!205 = metadata !{i32 786454, metadata !55, metadata !"RetType", metadata !56, i32 1402, i64 0, i64 0, i64 0, i32 0, metadata !206} ; [ DW_TAG_typedef ]
!206 = metadata !{i32 786454, metadata !207, metadata !"Type", metadata !56, i32 1359, i64 0, i64 0, i64 0, i32 0, metadata !130} ; [ DW_TAG_typedef ]
!207 = metadata !{i32 786434, null, metadata !"retval<8, true>", metadata !56, i32 1358, i64 8, i64 8, i32 0, i32 0, null, metadata !208, i32 0, null, metadata !209} ; [ DW_TAG_class_type ]
!208 = metadata !{i32 0}
!209 = metadata !{metadata !210, metadata !73}
!210 = metadata !{i32 786480, null, metadata !"_AP_N", metadata !72, i64 8, null, i32 0, i32 0} ; [ DW_TAG_template_value_parameter ]
!211 = metadata !{i32 786447, i32 0, metadata !"", i32 0, i32 0, i64 64, i64 64, i64 0, i32 64, metadata !83} ; [ DW_TAG_pointer_type ]
!212 = metadata !{i32 786478, i32 0, metadata !55, metadata !"to_bool", metadata !"to_bool", metadata !"_ZNK11ap_int_baseILi64ELb1ELb1EE7to_boolEv", metadata !56, i32 1659, metadata !213, i1 false, i1 false, i32 0, i32 0, null, i32 256, i1 false, null, null, i32 0, metadata !68, i32 1659} ; [ DW_TAG_subprogram ]
!213 = metadata !{i32 786453, i32 0, metadata !"", i32 0, i32 0, i64 0, i64 0, i64 0, i32 0, null, metadata !214, i32 0, i32 0} ; [ DW_TAG_subroutine_type ]
!214 = metadata !{metadata !74, metadata !211}
!215 = metadata !{i32 786478, i32 0, metadata !55, metadata !"to_uchar", metadata !"to_uchar", metadata !"_ZNK11ap_int_baseILi64ELb1ELb1EE8to_ucharEv", metadata !56, i32 1660, metadata !216, i1 false, i1 false, i32 0, i32 0, null, i32 256, i1 false, null, null, i32 0, metadata !68, i32 1660} ; [ DW_TAG_subprogram ]
!216 = metadata !{i32 786453, i32 0, metadata !"", i32 0, i32 0, i64 0, i64 0, i64 0, i32 0, null, metadata !217, i32 0, i32 0} ; [ DW_TAG_subroutine_type ]
!217 = metadata !{metadata !103, metadata !211}
!218 = metadata !{i32 786478, i32 0, metadata !55, metadata !"to_char", metadata !"to_char", metadata !"_ZNK11ap_int_baseILi64ELb1ELb1EE7to_charEv", metadata !56, i32 1661, metadata !219, i1 false, i1 false, i32 0, i32 0, null, i32 256, i1 false, null, null, i32 0, metadata !68, i32 1661} ; [ DW_TAG_subprogram ]
!219 = metadata !{i32 786453, i32 0, metadata !"", i32 0, i32 0, i64 0, i64 0, i64 0, i32 0, null, metadata !220, i32 0, i32 0} ; [ DW_TAG_subroutine_type ]
!220 = metadata !{metadata !99, metadata !211}
!221 = metadata !{i32 786478, i32 0, metadata !55, metadata !"to_ushort", metadata !"to_ushort", metadata !"_ZNK11ap_int_baseILi64ELb1ELb1EE9to_ushortEv", metadata !56, i32 1662, metadata !222, i1 false, i1 false, i32 0, i32 0, null, i32 256, i1 false, null, null, i32 0, metadata !68, i32 1662} ; [ DW_TAG_subprogram ]
!222 = metadata !{i32 786453, i32 0, metadata !"", i32 0, i32 0, i64 0, i64 0, i64 0, i32 0, null, metadata !223, i32 0, i32 0} ; [ DW_TAG_subroutine_type ]
!223 = metadata !{metadata !111, metadata !211}
!224 = metadata !{i32 786478, i32 0, metadata !55, metadata !"to_short", metadata !"to_short", metadata !"_ZNK11ap_int_baseILi64ELb1ELb1EE8to_shortEv", metadata !56, i32 1663, metadata !225, i1 false, i1 false, i32 0, i32 0, null, i32 256, i1 false, null, null, i32 0, metadata !68, i32 1663} ; [ DW_TAG_subprogram ]
!225 = metadata !{i32 786453, i32 0, metadata !"", i32 0, i32 0, i64 0, i64 0, i64 0, i32 0, null, metadata !226, i32 0, i32 0} ; [ DW_TAG_subroutine_type ]
!226 = metadata !{metadata !107, metadata !211}
!227 = metadata !{i32 786478, i32 0, metadata !55, metadata !"to_int", metadata !"to_int", metadata !"_ZNK11ap_int_baseILi64ELb1ELb1EE6to_intEv", metadata !56, i32 1664, metadata !228, i1 false, i1 false, i32 0, i32 0, null, i32 256, i1 false, null, null, i32 0, metadata !68, i32 1664} ; [ DW_TAG_subprogram ]
!228 = metadata !{i32 786453, i32 0, metadata !"", i32 0, i32 0, i64 0, i64 0, i64 0, i32 0, null, metadata !229, i32 0, i32 0} ; [ DW_TAG_subroutine_type ]
!229 = metadata !{metadata !72, metadata !211}
!230 = metadata !{i32 786478, i32 0, metadata !55, metadata !"to_uint", metadata !"to_uint", metadata !"_ZNK11ap_int_baseILi64ELb1ELb1EE7to_uintEv", metadata !56, i32 1665, metadata !231, i1 false, i1 false, i32 0, i32 0, null, i32 256, i1 false, null, null, i32 0, metadata !68, i32 1665} ; [ DW_TAG_subprogram ]
!231 = metadata !{i32 786453, i32 0, metadata !"", i32 0, i32 0, i64 0, i64 0, i64 0, i32 0, null, metadata !232, i32 0, i32 0} ; [ DW_TAG_subroutine_type ]
!232 = metadata !{metadata !118, metadata !211}
!233 = metadata !{i32 786478, i32 0, metadata !55, metadata !"to_long", metadata !"to_long", metadata !"_ZNK11ap_int_baseILi64ELb1ELb1EE7to_longEv", metadata !56, i32 1666, metadata !234, i1 false, i1 false, i32 0, i32 0, null, i32 256, i1 false, null, null, i32 0, metadata !68, i32 1666} ; [ DW_TAG_subprogram ]
!234 = metadata !{i32 786453, i32 0, metadata !"", i32 0, i32 0, i64 0, i64 0, i64 0, i32 0, null, metadata !235, i32 0, i32 0} ; [ DW_TAG_subroutine_type ]
!235 = metadata !{metadata !122, metadata !211}
!236 = metadata !{i32 786478, i32 0, metadata !55, metadata !"to_ulong", metadata !"to_ulong", metadata !"_ZNK11ap_int_baseILi64ELb1ELb1EE8to_ulongEv", metadata !56, i32 1667, metadata !237, i1 false, i1 false, i32 0, i32 0, null, i32 256, i1 false, null, null, i32 0, metadata !68, i32 1667} ; [ DW_TAG_subprogram ]
!237 = metadata !{i32 786453, i32 0, metadata !"", i32 0, i32 0, i64 0, i64 0, i64 0, i32 0, null, metadata !238, i32 0, i32 0} ; [ DW_TAG_subroutine_type ]
!238 = metadata !{metadata !126, metadata !211}
!239 = metadata !{i32 786478, i32 0, metadata !55, metadata !"to_int64", metadata !"to_int64", metadata !"_ZNK11ap_int_baseILi64ELb1ELb1EE8to_int64Ev", metadata !56, i32 1668, metadata !240, i1 false, i1 false, i32 0, i32 0, null, i32 256, i1 false, null, null, i32 0, metadata !68, i32 1668} ; [ DW_TAG_subprogram ]
!240 = metadata !{i32 786453, i32 0, metadata !"", i32 0, i32 0, i64 0, i64 0, i64 0, i32 0, null, metadata !241, i32 0, i32 0} ; [ DW_TAG_subroutine_type ]
!241 = metadata !{metadata !130, metadata !211}
!242 = metadata !{i32 786478, i32 0, metadata !55, metadata !"to_uint64", metadata !"to_uint64", metadata !"_ZNK11ap_int_baseILi64ELb1ELb1EE9to_uint64Ev", metadata !56, i32 1669, metadata !243, i1 false, i1 false, i32 0, i32 0, null, i32 256, i1 false, null, null, i32 0, metadata !68, i32 1669} ; [ DW_TAG_subprogram ]
!243 = metadata !{i32 786453, i32 0, metadata !"", i32 0, i32 0, i64 0, i64 0, i64 0, i32 0, null, metadata !244, i32 0, i32 0} ; [ DW_TAG_subroutine_type ]
!244 = metadata !{metadata !135, metadata !211}
!245 = metadata !{i32 786478, i32 0, metadata !55, metadata !"to_double", metadata !"to_double", metadata !"_ZNK11ap_int_baseILi64ELb1ELb1EE9to_doubleEv", metadata !56, i32 1670, metadata !246, i1 false, i1 false, i32 0, i32 0, null, i32 256, i1 false, null, null, i32 0, metadata !68, i32 1670} ; [ DW_TAG_subprogram ]
!246 = metadata !{i32 786453, i32 0, metadata !"", i32 0, i32 0, i64 0, i64 0, i64 0, i32 0, null, metadata !247, i32 0, i32 0} ; [ DW_TAG_subroutine_type ]
!247 = metadata !{metadata !144, metadata !211}
!248 = metadata !{i32 786478, i32 0, metadata !55, metadata !"length", metadata !"length", metadata !"_ZNK11ap_int_baseILi64ELb1ELb1EE6lengthEv", metadata !56, i32 1684, metadata !228, i1 false, i1 false, i32 0, i32 0, null, i32 256, i1 false, null, null, i32 0, metadata !68, i32 1684} ; [ DW_TAG_subprogram ]
!249 = metadata !{i32 786478, i32 0, metadata !55, metadata !"length", metadata !"length", metadata !"_ZNVK11ap_int_baseILi64ELb1ELb1EE6lengthEv", metadata !56, i32 1685, metadata !250, i1 false, i1 false, i32 0, i32 0, null, i32 256, i1 false, null, null, i32 0, metadata !68, i32 1685} ; [ DW_TAG_subprogram ]
!250 = metadata !{i32 786453, i32 0, metadata !"", i32 0, i32 0, i64 0, i64 0, i64 0, i32 0, null, metadata !251, i32 0, i32 0} ; [ DW_TAG_subroutine_type ]
!251 = metadata !{metadata !72, metadata !252}
!252 = metadata !{i32 786447, i32 0, metadata !"", i32 0, i32 0, i64 64, i64 64, i64 0, i32 64, metadata !91} ; [ DW_TAG_pointer_type ]
!253 = metadata !{i32 786478, i32 0, metadata !55, metadata !"reverse", metadata !"reverse", metadata !"_ZN11ap_int_baseILi64ELb1ELb1EE7reverseEv", metadata !56, i32 1690, metadata !254, i1 false, i1 false, i32 0, i32 0, null, i32 256, i1 false, null, null, i32 0, metadata !68, i32 1690} ; [ DW_TAG_subprogram ]
!254 = metadata !{i32 786453, i32 0, metadata !"", i32 0, i32 0, i64 0, i64 0, i64 0, i32 0, null, metadata !255, i32 0, i32 0} ; [ DW_TAG_subroutine_type ]
!255 = metadata !{metadata !168, metadata !78}
!256 = metadata !{i32 786478, i32 0, metadata !55, metadata !"iszero", metadata !"iszero", metadata !"_ZNK11ap_int_baseILi64ELb1ELb1EE6iszeroEv", metadata !56, i32 1696, metadata !213, i1 false, i1 false, i32 0, i32 0, null, i32 256, i1 false, null, null, i32 0, metadata !68, i32 1696} ; [ DW_TAG_subprogram ]
!257 = metadata !{i32 786478, i32 0, metadata !55, metadata !"is_zero", metadata !"is_zero", metadata !"_ZNK11ap_int_baseILi64ELb1ELb1EE7is_zeroEv", metadata !56, i32 1701, metadata !213, i1 false, i1 false, i32 0, i32 0, null, i32 256, i1 false, null, null, i32 0, metadata !68, i32 1701} ; [ DW_TAG_subprogram ]
!258 = metadata !{i32 786478, i32 0, metadata !55, metadata !"sign", metadata !"sign", metadata !"_ZNK11ap_int_baseILi64ELb1ELb1EE4signEv", metadata !56, i32 1706, metadata !213, i1 false, i1 false, i32 0, i32 0, null, i32 256, i1 false, null, null, i32 0, metadata !68, i32 1706} ; [ DW_TAG_subprogram ]
!259 = metadata !{i32 786478, i32 0, metadata !55, metadata !"clear", metadata !"clear", metadata !"_ZN11ap_int_baseILi64ELb1ELb1EE5clearEi", metadata !56, i32 1714, metadata !113, i1 false, i1 false, i32 0, i32 0, null, i32 256, i1 false, null, null, i32 0, metadata !68, i32 1714} ; [ DW_TAG_subprogram ]
!260 = metadata !{i32 786478, i32 0, metadata !55, metadata !"invert", metadata !"invert", metadata !"_ZN11ap_int_baseILi64ELb1ELb1EE6invertEi", metadata !56, i32 1720, metadata !113, i1 false, i1 false, i32 0, i32 0, null, i32 256, i1 false, null, null, i32 0, metadata !68, i32 1720} ; [ DW_TAG_subprogram ]
!261 = metadata !{i32 786478, i32 0, metadata !55, metadata !"test", metadata !"test", metadata !"_ZNK11ap_int_baseILi64ELb1ELb1EE4testEi", metadata !56, i32 1728, metadata !262, i1 false, i1 false, i32 0, i32 0, null, i32 256, i1 false, null, null, i32 0, metadata !68, i32 1728} ; [ DW_TAG_subprogram ]
!262 = metadata !{i32 786453, i32 0, metadata !"", i32 0, i32 0, i64 0, i64 0, i64 0, i32 0, null, metadata !263, i32 0, i32 0} ; [ DW_TAG_subroutine_type ]
!263 = metadata !{metadata !74, metadata !211, metadata !72}
!264 = metadata !{i32 786478, i32 0, metadata !55, metadata !"set", metadata !"set", metadata !"_ZN11ap_int_baseILi64ELb1ELb1EE3setEi", metadata !56, i32 1734, metadata !113, i1 false, i1 false, i32 0, i32 0, null, i32 256, i1 false, null, null, i32 0, metadata !68, i32 1734} ; [ DW_TAG_subprogram ]
!265 = metadata !{i32 786478, i32 0, metadata !55, metadata !"set", metadata !"set", metadata !"_ZN11ap_int_baseILi64ELb1ELb1EE3setEib", metadata !56, i32 1740, metadata !266, i1 false, i1 false, i32 0, i32 0, null, i32 256, i1 false, null, null, i32 0, metadata !68, i32 1740} ; [ DW_TAG_subprogram ]
!266 = metadata !{i32 786453, i32 0, metadata !"", i32 0, i32 0, i64 0, i64 0, i64 0, i32 0, null, metadata !267, i32 0, i32 0} ; [ DW_TAG_subroutine_type ]
!267 = metadata !{null, metadata !78, metadata !72, metadata !74}
!268 = metadata !{i32 786478, i32 0, metadata !55, metadata !"lrotate", metadata !"lrotate", metadata !"_ZN11ap_int_baseILi64ELb1ELb1EE7lrotateEi", metadata !56, i32 1747, metadata !113, i1 false, i1 false, i32 0, i32 0, null, i32 256, i1 false, null, null, i32 0, metadata !68, i32 1747} ; [ DW_TAG_subprogram ]
!269 = metadata !{i32 786478, i32 0, metadata !55, metadata !"rrotate", metadata !"rrotate", metadata !"_ZN11ap_int_baseILi64ELb1ELb1EE7rrotateEi", metadata !56, i32 1756, metadata !113, i1 false, i1 false, i32 0, i32 0, null, i32 256, i1 false, null, null, i32 0, metadata !68, i32 1756} ; [ DW_TAG_subprogram ]
!270 = metadata !{i32 786478, i32 0, metadata !55, metadata !"set_bit", metadata !"set_bit", metadata !"_ZN11ap_int_baseILi64ELb1ELb1EE7set_bitEib", metadata !56, i32 1764, metadata !266, i1 false, i1 false, i32 0, i32 0, null, i32 256, i1 false, null, null, i32 0, metadata !68, i32 1764} ; [ DW_TAG_subprogram ]
!271 = metadata !{i32 786478, i32 0, metadata !55, metadata !"get_bit", metadata !"get_bit", metadata !"_ZNK11ap_int_baseILi64ELb1ELb1EE7get_bitEi", metadata !56, i32 1769, metadata !262, i1 false, i1 false, i32 0, i32 0, null, i32 256, i1 false, null, null, i32 0, metadata !68, i32 1769} ; [ DW_TAG_subprogram ]
!272 = metadata !{i32 786478, i32 0, metadata !55, metadata !"b_not", metadata !"b_not", metadata !"_ZN11ap_int_baseILi64ELb1ELb1EE5b_notEv", metadata !56, i32 1774, metadata !76, i1 false, i1 false, i32 0, i32 0, null, i32 256, i1 false, null, null, i32 0, metadata !68, i32 1774} ; [ DW_TAG_subprogram ]
!273 = metadata !{i32 786478, i32 0, metadata !55, metadata !"countLeadingZeros", metadata !"countLeadingZeros", metadata !"_ZN11ap_int_baseILi64ELb1ELb1EE17countLeadingZerosEv", metadata !56, i32 1781, metadata !274, i1 false, i1 false, i32 0, i32 0, null, i32 256, i1 false, null, null, i32 0, metadata !68, i32 1781} ; [ DW_TAG_subprogram ]
!274 = metadata !{i32 786453, i32 0, metadata !"", i32 0, i32 0, i64 0, i64 0, i64 0, i32 0, null, metadata !275, i32 0, i32 0} ; [ DW_TAG_subroutine_type ]
!275 = metadata !{metadata !72, metadata !78}
!276 = metadata !{i32 786478, i32 0, metadata !55, metadata !"operator++", metadata !"operator++", metadata !"_ZN11ap_int_baseILi64ELb1ELb1EEppEv", metadata !56, i32 1838, metadata !254, i1 false, i1 false, i32 0, i32 0, null, i32 256, i1 false, null, null, i32 0, metadata !68, i32 1838} ; [ DW_TAG_subprogram ]
!277 = metadata !{i32 786478, i32 0, metadata !55, metadata !"operator--", metadata !"operator--", metadata !"_ZN11ap_int_baseILi64ELb1ELb1EEmmEv", metadata !56, i32 1842, metadata !254, i1 false, i1 false, i32 0, i32 0, null, i32 256, i1 false, null, null, i32 0, metadata !68, i32 1842} ; [ DW_TAG_subprogram ]
!278 = metadata !{i32 786478, i32 0, metadata !55, metadata !"operator++", metadata !"operator++", metadata !"_ZN11ap_int_baseILi64ELb1ELb1EEppEi", metadata !56, i32 1850, metadata !279, i1 false, i1 false, i32 0, i32 0, null, i32 256, i1 false, null, null, i32 0, metadata !68, i32 1850} ; [ DW_TAG_subprogram ]
!279 = metadata !{i32 786453, i32 0, metadata !"", i32 0, i32 0, i64 0, i64 0, i64 0, i32 0, null, metadata !280, i32 0, i32 0} ; [ DW_TAG_subroutine_type ]
!280 = metadata !{metadata !83, metadata !78, metadata !72}
!281 = metadata !{i32 786478, i32 0, metadata !55, metadata !"operator--", metadata !"operator--", metadata !"_ZN11ap_int_baseILi64ELb1ELb1EEmmEi", metadata !56, i32 1855, metadata !279, i1 false, i1 false, i32 0, i32 0, null, i32 256, i1 false, null, null, i32 0, metadata !68, i32 1855} ; [ DW_TAG_subprogram ]
!282 = metadata !{i32 786478, i32 0, metadata !55, metadata !"operator+", metadata !"operator+", metadata !"_ZNK11ap_int_baseILi64ELb1ELb1EEpsEv", metadata !56, i32 1864, metadata !283, i1 false, i1 false, i32 0, i32 0, null, i32 256, i1 false, null, null, i32 0, metadata !68, i32 1864} ; [ DW_TAG_subprogram ]
!283 = metadata !{i32 786453, i32 0, metadata !"", i32 0, i32 0, i64 0, i64 0, i64 0, i32 0, null, metadata !284, i32 0, i32 0} ; [ DW_TAG_subroutine_type ]
!284 = metadata !{metadata !55, metadata !211}
!285 = metadata !{i32 786478, i32 0, metadata !55, metadata !"operator!", metadata !"operator!", metadata !"_ZNK11ap_int_baseILi64ELb1ELb1EEntEv", metadata !56, i32 1870, metadata !213, i1 false, i1 false, i32 0, i32 0, null, i32 256, i1 false, null, null, i32 0, metadata !68, i32 1870} ; [ DW_TAG_subprogram ]
!286 = metadata !{i32 786478, i32 0, metadata !55, metadata !"operator-", metadata !"operator-", metadata !"_ZNK11ap_int_baseILi64ELb1ELb1EEngEv", metadata !56, i32 1875, metadata !283, i1 false, i1 false, i32 0, i32 0, null, i32 256, i1 false, null, null, i32 0, metadata !68, i32 1875} ; [ DW_TAG_subprogram ]
!287 = metadata !{i32 786478, i32 0, metadata !55, metadata !"range", metadata !"range", metadata !"_ZN11ap_int_baseILi64ELb1ELb1EE5rangeEii", metadata !56, i32 2005, metadata !288, i1 false, i1 false, i32 0, i32 0, null, i32 256, i1 false, null, null, i32 0, metadata !68, i32 2005} ; [ DW_TAG_subprogram ]
!288 = metadata !{i32 786453, i32 0, metadata !"", i32 0, i32 0, i64 0, i64 0, i64 0, i32 0, null, metadata !289, i32 0, i32 0} ; [ DW_TAG_subroutine_type ]
!289 = metadata !{metadata !290, metadata !78, metadata !72, metadata !72}
!290 = metadata !{i32 786434, null, metadata !"ap_range_ref<64, true>", metadata !56, i32 923, i32 0, i32 0, i32 0, i32 4, null, null, i32 0} ; [ DW_TAG_class_type ]
!291 = metadata !{i32 786478, i32 0, metadata !55, metadata !"operator()", metadata !"operator()", metadata !"_ZN11ap_int_baseILi64ELb1ELb1EEclEii", metadata !56, i32 2011, metadata !288, i1 false, i1 false, i32 0, i32 0, null, i32 256, i1 false, null, null, i32 0, metadata !68, i32 2011} ; [ DW_TAG_subprogram ]
!292 = metadata !{i32 786478, i32 0, metadata !55, metadata !"range", metadata !"range", metadata !"_ZNK11ap_int_baseILi64ELb1ELb1EE5rangeEii", metadata !56, i32 2017, metadata !293, i1 false, i1 false, i32 0, i32 0, null, i32 256, i1 false, null, null, i32 0, metadata !68, i32 2017} ; [ DW_TAG_subprogram ]
!293 = metadata !{i32 786453, i32 0, metadata !"", i32 0, i32 0, i64 0, i64 0, i64 0, i32 0, null, metadata !294, i32 0, i32 0} ; [ DW_TAG_subroutine_type ]
!294 = metadata !{metadata !290, metadata !211, metadata !72, metadata !72}
!295 = metadata !{i32 786478, i32 0, metadata !55, metadata !"operator()", metadata !"operator()", metadata !"_ZNK11ap_int_baseILi64ELb1ELb1EEclEii", metadata !56, i32 2023, metadata !293, i1 false, i1 false, i32 0, i32 0, null, i32 256, i1 false, null, null, i32 0, metadata !68, i32 2023} ; [ DW_TAG_subprogram ]
!296 = metadata !{i32 786478, i32 0, metadata !55, metadata !"operator[]", metadata !"operator[]", metadata !"_ZN11ap_int_baseILi64ELb1ELb1EEixEi", metadata !56, i32 2042, metadata !297, i1 false, i1 false, i32 0, i32 0, null, i32 256, i1 false, null, null, i32 0, metadata !68, i32 2042} ; [ DW_TAG_subprogram ]
!297 = metadata !{i32 786453, i32 0, metadata !"", i32 0, i32 0, i64 0, i64 0, i64 0, i32 0, null, metadata !298, i32 0, i32 0} ; [ DW_TAG_subroutine_type ]
!298 = metadata !{metadata !299, metadata !78, metadata !72}
!299 = metadata !{i32 786434, null, metadata !"ap_bit_ref<64, true>", metadata !56, i32 1193, i32 0, i32 0, i32 0, i32 4, null, null, i32 0} ; [ DW_TAG_class_type ]
!300 = metadata !{i32 786478, i32 0, metadata !55, metadata !"operator[]", metadata !"operator[]", metadata !"_ZNK11ap_int_baseILi64ELb1ELb1EEixEi", metadata !56, i32 2056, metadata !262, i1 false, i1 false, i32 0, i32 0, null, i32 256, i1 false, null, null, i32 0, metadata !68, i32 2056} ; [ DW_TAG_subprogram ]
!301 = metadata !{i32 786478, i32 0, metadata !55, metadata !"bit", metadata !"bit", metadata !"_ZN11ap_int_baseILi64ELb1ELb1EE3bitEi", metadata !56, i32 2070, metadata !297, i1 false, i1 false, i32 0, i32 0, null, i32 256, i1 false, null, null, i32 0, metadata !68, i32 2070} ; [ DW_TAG_subprogram ]
!302 = metadata !{i32 786478, i32 0, metadata !55, metadata !"bit", metadata !"bit", metadata !"_ZNK11ap_int_baseILi64ELb1ELb1EE3bitEi", metadata !56, i32 2084, metadata !262, i1 false, i1 false, i32 0, i32 0, null, i32 256, i1 false, null, null, i32 0, metadata !68, i32 2084} ; [ DW_TAG_subprogram ]
!303 = metadata !{i32 786478, i32 0, metadata !55, metadata !"and_reduce", metadata !"and_reduce", metadata !"_ZN11ap_int_baseILi64ELb1ELb1EE10and_reduceEv", metadata !56, i32 2264, metadata !304, i1 false, i1 false, i32 0, i32 0, null, i32 256, i1 false, null, null, i32 0, metadata !68, i32 2264} ; [ DW_TAG_subprogram ]
!304 = metadata !{i32 786453, i32 0, metadata !"", i32 0, i32 0, i64 0, i64 0, i64 0, i32 0, null, metadata !305, i32 0, i32 0} ; [ DW_TAG_subroutine_type ]
!305 = metadata !{metadata !74, metadata !78}
!306 = metadata !{i32 786478, i32 0, metadata !55, metadata !"nand_reduce", metadata !"nand_reduce", metadata !"_ZN11ap_int_baseILi64ELb1ELb1EE11nand_reduceEv", metadata !56, i32 2267, metadata !304, i1 false, i1 false, i32 0, i32 0, null, i32 256, i1 false, null, null, i32 0, metadata !68, i32 2267} ; [ DW_TAG_subprogram ]
!307 = metadata !{i32 786478, i32 0, metadata !55, metadata !"or_reduce", metadata !"or_reduce", metadata !"_ZN11ap_int_baseILi64ELb1ELb1EE9or_reduceEv", metadata !56, i32 2270, metadata !304, i1 false, i1 false, i32 0, i32 0, null, i32 256, i1 false, null, null, i32 0, metadata !68, i32 2270} ; [ DW_TAG_subprogram ]
!308 = metadata !{i32 786478, i32 0, metadata !55, metadata !"nor_reduce", metadata !"nor_reduce", metadata !"_ZN11ap_int_baseILi64ELb1ELb1EE10nor_reduceEv", metadata !56, i32 2273, metadata !304, i1 false, i1 false, i32 0, i32 0, null, i32 256, i1 false, null, null, i32 0, metadata !68, i32 2273} ; [ DW_TAG_subprogram ]
!309 = metadata !{i32 786478, i32 0, metadata !55, metadata !"xor_reduce", metadata !"xor_reduce", metadata !"_ZN11ap_int_baseILi64ELb1ELb1EE10xor_reduceEv", metadata !56, i32 2276, metadata !304, i1 false, i1 false, i32 0, i32 0, null, i32 256, i1 false, null, null, i32 0, metadata !68, i32 2276} ; [ DW_TAG_subprogram ]
!310 = metadata !{i32 786478, i32 0, metadata !55, metadata !"xnor_reduce", metadata !"xnor_reduce", metadata !"_ZN11ap_int_baseILi64ELb1ELb1EE11xnor_reduceEv", metadata !56, i32 2279, metadata !304, i1 false, i1 false, i32 0, i32 0, null, i32 256, i1 false, null, null, i32 0, metadata !68, i32 2279} ; [ DW_TAG_subprogram ]
!311 = metadata !{i32 786478, i32 0, metadata !55, metadata !"and_reduce", metadata !"and_reduce", metadata !"_ZNK11ap_int_baseILi64ELb1ELb1EE10and_reduceEv", metadata !56, i32 2283, metadata !213, i1 false, i1 false, i32 0, i32 0, null, i32 256, i1 false, null, null, i32 0, metadata !68, i32 2283} ; [ DW_TAG_subprogram ]
!312 = metadata !{i32 786478, i32 0, metadata !55, metadata !"nand_reduce", metadata !"nand_reduce", metadata !"_ZNK11ap_int_baseILi64ELb1ELb1EE11nand_reduceEv", metadata !56, i32 2286, metadata !213, i1 false, i1 false, i32 0, i32 0, null, i32 256, i1 false, null, null, i32 0, metadata !68, i32 2286} ; [ DW_TAG_subprogram ]
!313 = metadata !{i32 786478, i32 0, metadata !55, metadata !"or_reduce", metadata !"or_reduce", metadata !"_ZNK11ap_int_baseILi64ELb1ELb1EE9or_reduceEv", metadata !56, i32 2289, metadata !213, i1 false, i1 false, i32 0, i32 0, null, i32 256, i1 false, null, null, i32 0, metadata !68, i32 2289} ; [ DW_TAG_subprogram ]
!314 = metadata !{i32 786478, i32 0, metadata !55, metadata !"nor_reduce", metadata !"nor_reduce", metadata !"_ZNK11ap_int_baseILi64ELb1ELb1EE10nor_reduceEv", metadata !56, i32 2292, metadata !213, i1 false, i1 false, i32 0, i32 0, null, i32 256, i1 false, null, null, i32 0, metadata !68, i32 2292} ; [ DW_TAG_subprogram ]
!315 = metadata !{i32 786478, i32 0, metadata !55, metadata !"xor_reduce", metadata !"xor_reduce", metadata !"_ZNK11ap_int_baseILi64ELb1ELb1EE10xor_reduceEv", metadata !56, i32 2295, metadata !213, i1 false, i1 false, i32 0, i32 0, null, i32 256, i1 false, null, null, i32 0, metadata !68, i32 2295} ; [ DW_TAG_subprogram ]
!316 = metadata !{i32 786478, i32 0, metadata !55, metadata !"xnor_reduce", metadata !"xnor_reduce", metadata !"_ZNK11ap_int_baseILi64ELb1ELb1EE11xnor_reduceEv", metadata !56, i32 2298, metadata !213, i1 false, i1 false, i32 0, i32 0, null, i32 256, i1 false, null, null, i32 0, metadata !68, i32 2298} ; [ DW_TAG_subprogram ]
!317 = metadata !{i32 786478, i32 0, metadata !55, metadata !"to_string", metadata !"to_string", metadata !"_ZNK11ap_int_baseILi64ELb1ELb1EE9to_stringEPci8BaseModeb", metadata !56, i32 2305, metadata !318, i1 false, i1 false, i32 0, i32 0, null, i32 256, i1 false, null, null, i32 0, metadata !68, i32 2305} ; [ DW_TAG_subprogram ]
!318 = metadata !{i32 786453, i32 0, metadata !"", i32 0, i32 0, i64 0, i64 0, i64 0, i32 0, null, metadata !319, i32 0, i32 0} ; [ DW_TAG_subroutine_type ]
!319 = metadata !{null, metadata !211, metadata !320, metadata !72, metadata !321, metadata !74}
!320 = metadata !{i32 786447, null, metadata !"", null, i32 0, i64 64, i64 64, i64 0, i32 0, metadata !150} ; [ DW_TAG_pointer_type ]
!321 = metadata !{i32 786436, null, metadata !"BaseMode", metadata !56, i32 602, i64 5, i64 8, i32 0, i32 0, null, metadata !322, i32 0, i32 0} ; [ DW_TAG_enumeration_type ]
!322 = metadata !{metadata !323, metadata !324, metadata !325, metadata !326}
!323 = metadata !{i32 786472, metadata !"SC_BIN", i64 2} ; [ DW_TAG_enumerator ]
!324 = metadata !{i32 786472, metadata !"SC_OCT", i64 8} ; [ DW_TAG_enumerator ]
!325 = metadata !{i32 786472, metadata !"SC_DEC", i64 10} ; [ DW_TAG_enumerator ]
!326 = metadata !{i32 786472, metadata !"SC_HEX", i64 16} ; [ DW_TAG_enumerator ]
!327 = metadata !{i32 786478, i32 0, metadata !55, metadata !"to_string", metadata !"to_string", metadata !"_ZNK11ap_int_baseILi64ELb1ELb1EE9to_stringE8BaseModeb", metadata !56, i32 2332, metadata !328, i1 false, i1 false, i32 0, i32 0, null, i32 256, i1 false, null, null, i32 0, metadata !68, i32 2332} ; [ DW_TAG_subprogram ]
!328 = metadata !{i32 786453, i32 0, metadata !"", i32 0, i32 0, i64 0, i64 0, i64 0, i32 0, null, metadata !329, i32 0, i32 0} ; [ DW_TAG_subroutine_type ]
!329 = metadata !{metadata !320, metadata !211, metadata !321, metadata !74}
!330 = metadata !{i32 786478, i32 0, metadata !55, metadata !"to_string", metadata !"to_string", metadata !"_ZNK11ap_int_baseILi64ELb1ELb1EE9to_stringEab", metadata !56, i32 2336, metadata !331, i1 false, i1 false, i32 0, i32 0, null, i32 256, i1 false, null, null, i32 0, metadata !68, i32 2336} ; [ DW_TAG_subprogram ]
!331 = metadata !{i32 786453, i32 0, metadata !"", i32 0, i32 0, i64 0, i64 0, i64 0, i32 0, null, metadata !332, i32 0, i32 0} ; [ DW_TAG_subroutine_type ]
!332 = metadata !{metadata !320, metadata !211, metadata !99, metadata !74}
!333 = metadata !{metadata !334, metadata !73, metadata !335}
!334 = metadata !{i32 786480, null, metadata !"_AP_W", metadata !72, i64 64, null, i32 0, i32 0} ; [ DW_TAG_template_value_parameter ]
!335 = metadata !{i32 786480, null, metadata !"_AP_C", metadata !74, i64 1, null, i32 0, i32 0} ; [ DW_TAG_template_value_parameter ]
!336 = metadata !{i32 786478, i32 0, metadata !51, metadata !"ap_int", metadata !"ap_int", metadata !"", metadata !52, i32 76, metadata !337, i1 false, i1 false, i32 0, i32 0, null, i32 256, i1 false, null, null, i32 0, metadata !68, i32 76} ; [ DW_TAG_subprogram ]
!337 = metadata !{i32 786453, i32 0, metadata !"", i32 0, i32 0, i64 0, i64 0, i64 0, i32 0, null, metadata !338, i32 0, i32 0} ; [ DW_TAG_subroutine_type ]
!338 = metadata !{null, metadata !339}
!339 = metadata !{i32 786447, i32 0, metadata !"", i32 0, i32 0, i64 64, i64 64, i64 0, i32 64, metadata !51} ; [ DW_TAG_pointer_type ]
!340 = metadata !{i32 786478, i32 0, metadata !51, metadata !"ap_int<64>", metadata !"ap_int<64>", metadata !"", metadata !52, i32 78, metadata !341, i1 false, i1 false, i32 0, i32 0, null, i32 256, i1 false, null, metadata !345, i32 0, metadata !68, i32 78} ; [ DW_TAG_subprogram ]
!341 = metadata !{i32 786453, i32 0, metadata !"", i32 0, i32 0, i64 0, i64 0, i64 0, i32 0, null, metadata !342, i32 0, i32 0} ; [ DW_TAG_subroutine_type ]
!342 = metadata !{null, metadata !339, metadata !343}
!343 = metadata !{i32 786448, null, null, null, i32 0, i64 0, i64 0, i64 0, i32 0, metadata !344} ; [ DW_TAG_reference_type ]
!344 = metadata !{i32 786470, null, metadata !"", null, i32 0, i64 0, i64 0, i64 0, i32 0, metadata !51} ; [ DW_TAG_const_type ]
!345 = metadata !{metadata !85}
!346 = metadata !{i32 786478, i32 0, metadata !51, metadata !"ap_int<64>", metadata !"ap_int<64>", metadata !"", metadata !52, i32 81, metadata !347, i1 false, i1 false, i32 0, i32 0, null, i32 256, i1 false, null, metadata !345, i32 0, metadata !68, i32 81} ; [ DW_TAG_subprogram ]
!347 = metadata !{i32 786453, i32 0, metadata !"", i32 0, i32 0, i64 0, i64 0, i64 0, i32 0, null, metadata !348, i32 0, i32 0} ; [ DW_TAG_subroutine_type ]
!348 = metadata !{null, metadata !339, metadata !349}
!349 = metadata !{i32 786448, null, null, null, i32 0, i64 0, i64 0, i64 0, i32 0, metadata !350} ; [ DW_TAG_reference_type ]
!350 = metadata !{i32 786470, null, metadata !"", null, i32 0, i64 0, i64 0, i64 0, i32 0, metadata !351} ; [ DW_TAG_const_type ]
!351 = metadata !{i32 786485, null, metadata !"", null, i32 0, i64 0, i64 0, i64 0, i32 0, metadata !51} ; [ DW_TAG_volatile_type ]
!352 = metadata !{i32 786478, i32 0, metadata !51, metadata !"ap_int<64, true>", metadata !"ap_int<64, true>", metadata !"", metadata !52, i32 120, metadata !353, i1 false, i1 false, i32 0, i32 0, null, i32 256, i1 false, null, metadata !84, i32 0, metadata !68, i32 120} ; [ DW_TAG_subprogram ]
!353 = metadata !{i32 786453, i32 0, metadata !"", i32 0, i32 0, i64 0, i64 0, i64 0, i32 0, null, metadata !354, i32 0, i32 0} ; [ DW_TAG_subroutine_type ]
!354 = metadata !{null, metadata !339, metadata !82}
!355 = metadata !{i32 786478, i32 0, metadata !51, metadata !"ap_int", metadata !"ap_int", metadata !"", metadata !52, i32 139, metadata !356, i1 false, i1 false, i32 0, i32 0, null, i32 256, i1 false, null, null, i32 0, metadata !68, i32 139} ; [ DW_TAG_subprogram ]
!356 = metadata !{i32 786453, i32 0, metadata !"", i32 0, i32 0, i64 0, i64 0, i64 0, i32 0, null, metadata !357, i32 0, i32 0} ; [ DW_TAG_subroutine_type ]
!357 = metadata !{null, metadata !339, metadata !74}
!358 = metadata !{i32 786478, i32 0, metadata !51, metadata !"ap_int", metadata !"ap_int", metadata !"", metadata !52, i32 140, metadata !359, i1 false, i1 false, i32 0, i32 0, null, i32 256, i1 false, null, null, i32 0, metadata !68, i32 140} ; [ DW_TAG_subprogram ]
!359 = metadata !{i32 786453, i32 0, metadata !"", i32 0, i32 0, i64 0, i64 0, i64 0, i32 0, null, metadata !360, i32 0, i32 0} ; [ DW_TAG_subroutine_type ]
!360 = metadata !{null, metadata !339, metadata !99}
!361 = metadata !{i32 786478, i32 0, metadata !51, metadata !"ap_int", metadata !"ap_int", metadata !"", metadata !52, i32 141, metadata !362, i1 false, i1 false, i32 0, i32 0, null, i32 256, i1 false, null, null, i32 0, metadata !68, i32 141} ; [ DW_TAG_subprogram ]
!362 = metadata !{i32 786453, i32 0, metadata !"", i32 0, i32 0, i64 0, i64 0, i64 0, i32 0, null, metadata !363, i32 0, i32 0} ; [ DW_TAG_subroutine_type ]
!363 = metadata !{null, metadata !339, metadata !103}
!364 = metadata !{i32 786478, i32 0, metadata !51, metadata !"ap_int", metadata !"ap_int", metadata !"", metadata !52, i32 142, metadata !365, i1 false, i1 false, i32 0, i32 0, null, i32 256, i1 false, null, null, i32 0, metadata !68, i32 142} ; [ DW_TAG_subprogram ]
!365 = metadata !{i32 786453, i32 0, metadata !"", i32 0, i32 0, i64 0, i64 0, i64 0, i32 0, null, metadata !366, i32 0, i32 0} ; [ DW_TAG_subroutine_type ]
!366 = metadata !{null, metadata !339, metadata !107}
!367 = metadata !{i32 786478, i32 0, metadata !51, metadata !"ap_int", metadata !"ap_int", metadata !"", metadata !52, i32 143, metadata !368, i1 false, i1 false, i32 0, i32 0, null, i32 256, i1 false, null, null, i32 0, metadata !68, i32 143} ; [ DW_TAG_subprogram ]
!368 = metadata !{i32 786453, i32 0, metadata !"", i32 0, i32 0, i64 0, i64 0, i64 0, i32 0, null, metadata !369, i32 0, i32 0} ; [ DW_TAG_subroutine_type ]
!369 = metadata !{null, metadata !339, metadata !111}
!370 = metadata !{i32 786478, i32 0, metadata !51, metadata !"ap_int", metadata !"ap_int", metadata !"", metadata !52, i32 144, metadata !371, i1 false, i1 false, i32 0, i32 0, null, i32 256, i1 false, null, null, i32 0, metadata !68, i32 144} ; [ DW_TAG_subprogram ]
!371 = metadata !{i32 786453, i32 0, metadata !"", i32 0, i32 0, i64 0, i64 0, i64 0, i32 0, null, metadata !372, i32 0, i32 0} ; [ DW_TAG_subroutine_type ]
!372 = metadata !{null, metadata !339, metadata !72}
!373 = metadata !{i32 786478, i32 0, metadata !51, metadata !"ap_int", metadata !"ap_int", metadata !"", metadata !52, i32 145, metadata !374, i1 false, i1 false, i32 0, i32 0, null, i32 256, i1 false, null, null, i32 0, metadata !68, i32 145} ; [ DW_TAG_subprogram ]
!374 = metadata !{i32 786453, i32 0, metadata !"", i32 0, i32 0, i64 0, i64 0, i64 0, i32 0, null, metadata !375, i32 0, i32 0} ; [ DW_TAG_subroutine_type ]
!375 = metadata !{null, metadata !339, metadata !118}
!376 = metadata !{i32 786478, i32 0, metadata !51, metadata !"ap_int", metadata !"ap_int", metadata !"", metadata !52, i32 146, metadata !377, i1 false, i1 false, i32 0, i32 0, null, i32 256, i1 false, null, null, i32 0, metadata !68, i32 146} ; [ DW_TAG_subprogram ]
!377 = metadata !{i32 786453, i32 0, metadata !"", i32 0, i32 0, i64 0, i64 0, i64 0, i32 0, null, metadata !378, i32 0, i32 0} ; [ DW_TAG_subroutine_type ]
!378 = metadata !{null, metadata !339, metadata !122}
!379 = metadata !{i32 786478, i32 0, metadata !51, metadata !"ap_int", metadata !"ap_int", metadata !"", metadata !52, i32 147, metadata !380, i1 false, i1 false, i32 0, i32 0, null, i32 256, i1 false, null, null, i32 0, metadata !68, i32 147} ; [ DW_TAG_subprogram ]
!380 = metadata !{i32 786453, i32 0, metadata !"", i32 0, i32 0, i64 0, i64 0, i64 0, i32 0, null, metadata !381, i32 0, i32 0} ; [ DW_TAG_subroutine_type ]
!381 = metadata !{null, metadata !339, metadata !126}
!382 = metadata !{i32 786478, i32 0, metadata !51, metadata !"ap_int", metadata !"ap_int", metadata !"", metadata !52, i32 148, metadata !383, i1 false, i1 false, i32 0, i32 0, null, i32 256, i1 false, null, null, i32 0, metadata !68, i32 148} ; [ DW_TAG_subprogram ]
!383 = metadata !{i32 786453, i32 0, metadata !"", i32 0, i32 0, i64 0, i64 0, i64 0, i32 0, null, metadata !384, i32 0, i32 0} ; [ DW_TAG_subroutine_type ]
!384 = metadata !{null, metadata !339, metadata !136}
!385 = metadata !{i32 786478, i32 0, metadata !51, metadata !"ap_int", metadata !"ap_int", metadata !"", metadata !52, i32 149, metadata !386, i1 false, i1 false, i32 0, i32 0, null, i32 256, i1 false, null, null, i32 0, metadata !68, i32 149} ; [ DW_TAG_subprogram ]
!386 = metadata !{i32 786453, i32 0, metadata !"", i32 0, i32 0, i64 0, i64 0, i64 0, i32 0, null, metadata !387, i32 0, i32 0} ; [ DW_TAG_subroutine_type ]
!387 = metadata !{null, metadata !339, metadata !131}
!388 = metadata !{i32 786478, i32 0, metadata !51, metadata !"ap_int", metadata !"ap_int", metadata !"", metadata !52, i32 150, metadata !389, i1 false, i1 false, i32 0, i32 0, null, i32 256, i1 false, null, null, i32 0, metadata !68, i32 150} ; [ DW_TAG_subprogram ]
!389 = metadata !{i32 786453, i32 0, metadata !"", i32 0, i32 0, i64 0, i64 0, i64 0, i32 0, null, metadata !390, i32 0, i32 0} ; [ DW_TAG_subroutine_type ]
!390 = metadata !{null, metadata !339, metadata !140}
!391 = metadata !{i32 786478, i32 0, metadata !51, metadata !"ap_int", metadata !"ap_int", metadata !"", metadata !52, i32 151, metadata !392, i1 false, i1 false, i32 0, i32 0, null, i32 256, i1 false, null, null, i32 0, metadata !68, i32 151} ; [ DW_TAG_subprogram ]
!392 = metadata !{i32 786453, i32 0, metadata !"", i32 0, i32 0, i64 0, i64 0, i64 0, i32 0, null, metadata !393, i32 0, i32 0} ; [ DW_TAG_subroutine_type ]
!393 = metadata !{null, metadata !339, metadata !144}
!394 = metadata !{i32 786478, i32 0, metadata !51, metadata !"ap_int", metadata !"ap_int", metadata !"", metadata !52, i32 153, metadata !395, i1 false, i1 false, i32 0, i32 0, null, i32 256, i1 false, null, null, i32 0, metadata !68, i32 153} ; [ DW_TAG_subprogram ]
!395 = metadata !{i32 786453, i32 0, metadata !"", i32 0, i32 0, i64 0, i64 0, i64 0, i32 0, null, metadata !396, i32 0, i32 0} ; [ DW_TAG_subroutine_type ]
!396 = metadata !{null, metadata !339, metadata !148}
!397 = metadata !{i32 786478, i32 0, metadata !51, metadata !"ap_int", metadata !"ap_int", metadata !"", metadata !52, i32 154, metadata !398, i1 false, i1 false, i32 0, i32 0, null, i32 256, i1 false, null, null, i32 0, metadata !68, i32 154} ; [ DW_TAG_subprogram ]
!398 = metadata !{i32 786453, i32 0, metadata !"", i32 0, i32 0, i64 0, i64 0, i64 0, i32 0, null, metadata !399, i32 0, i32 0} ; [ DW_TAG_subroutine_type ]
!399 = metadata !{null, metadata !339, metadata !148, metadata !99}
!400 = metadata !{i32 786478, i32 0, metadata !51, metadata !"operator=", metadata !"operator=", metadata !"_ZNV6ap_intILi64EEaSERKS0_", metadata !52, i32 158, metadata !401, i1 false, i1 false, i32 0, i32 0, null, i32 256, i1 false, null, null, i32 0, metadata !68, i32 158} ; [ DW_TAG_subprogram ]
!401 = metadata !{i32 786453, i32 0, metadata !"", i32 0, i32 0, i64 0, i64 0, i64 0, i32 0, null, metadata !402, i32 0, i32 0} ; [ DW_TAG_subroutine_type ]
!402 = metadata !{null, metadata !403, metadata !343}
!403 = metadata !{i32 786447, i32 0, metadata !"", i32 0, i32 0, i64 64, i64 64, i64 0, i32 64, metadata !351} ; [ DW_TAG_pointer_type ]
!404 = metadata !{i32 786478, i32 0, metadata !51, metadata !"operator=", metadata !"operator=", metadata !"_ZNV6ap_intILi64EEaSERVKS0_", metadata !52, i32 162, metadata !405, i1 false, i1 false, i32 0, i32 0, null, i32 256, i1 false, null, null, i32 0, metadata !68, i32 162} ; [ DW_TAG_subprogram ]
!405 = metadata !{i32 786453, i32 0, metadata !"", i32 0, i32 0, i64 0, i64 0, i64 0, i32 0, null, metadata !406, i32 0, i32 0} ; [ DW_TAG_subroutine_type ]
!406 = metadata !{null, metadata !403, metadata !349}
!407 = metadata !{i32 786478, i32 0, metadata !51, metadata !"operator=", metadata !"operator=", metadata !"_ZN6ap_intILi64EEaSERVKS0_", metadata !52, i32 166, metadata !408, i1 false, i1 false, i32 0, i32 0, null, i32 256, i1 false, null, null, i32 0, metadata !68, i32 166} ; [ DW_TAG_subprogram ]
!408 = metadata !{i32 786453, i32 0, metadata !"", i32 0, i32 0, i64 0, i64 0, i64 0, i32 0, null, metadata !409, i32 0, i32 0} ; [ DW_TAG_subroutine_type ]
!409 = metadata !{metadata !410, metadata !339, metadata !349}
!410 = metadata !{i32 786448, null, null, null, i32 0, i64 0, i64 0, i64 0, i32 0, metadata !51} ; [ DW_TAG_reference_type ]
!411 = metadata !{i32 786478, i32 0, metadata !51, metadata !"operator=", metadata !"operator=", metadata !"_ZN6ap_intILi64EEaSERKS0_", metadata !52, i32 171, metadata !412, i1 false, i1 false, i32 0, i32 0, null, i32 256, i1 false, null, null, i32 0, metadata !68, i32 171} ; [ DW_TAG_subprogram ]
!412 = metadata !{i32 786453, i32 0, metadata !"", i32 0, i32 0, i64 0, i64 0, i64 0, i32 0, null, metadata !413, i32 0, i32 0} ; [ DW_TAG_subroutine_type ]
!413 = metadata !{metadata !410, metadata !339, metadata !343}
!414 = metadata !{metadata !334}
!415 = metadata !{i32 786445, metadata !47, metadata !"keep", metadata !48, i32 92, i64 8, i64 8, i64 64, i32 0, metadata !416} ; [ DW_TAG_member ]
!416 = metadata !{i32 786434, null, metadata !"ap_uint<8>", metadata !52, i32 180, i64 8, i64 8, i32 0, i32 0, null, metadata !417, i32 0, null, metadata !1025} ; [ DW_TAG_class_type ]
!417 = metadata !{metadata !418, metadata !947, metadata !951, metadata !957, metadata !963, metadata !966, metadata !969, metadata !972, metadata !975, metadata !978, metadata !981, metadata !984, metadata !987, metadata !990, metadata !993, metadata !996, metadata !999, metadata !1002, metadata !1005, metadata !1008, metadata !1011, metadata !1015, metadata !1018, metadata !1022}
!418 = metadata !{i32 786460, metadata !416, null, metadata !52, i32 0, i64 0, i64 0, i64 0, i32 0, metadata !419} ; [ DW_TAG_inheritance ]
!419 = metadata !{i32 786434, null, metadata !"ap_int_base<8, false, true>", metadata !56, i32 1397, i64 8, i64 8, i32 0, i32 0, null, metadata !420, i32 0, null, metadata !945} ; [ DW_TAG_class_type ]
!420 = metadata !{metadata !421, metadata !432, metadata !436, metadata !444, metadata !450, metadata !453, metadata !456, metadata !459, metadata !462, metadata !465, metadata !468, metadata !471, metadata !474, metadata !477, metadata !480, metadata !483, metadata !486, metadata !489, metadata !492, metadata !495, metadata !499, metadata !502, metadata !505, metadata !506, metadata !510, metadata !513, metadata !516, metadata !519, metadata !522, metadata !525, metadata !528, metadata !531, metadata !534, metadata !537, metadata !540, metadata !543, metadata !552, metadata !555, metadata !558, metadata !561, metadata !564, metadata !567, metadata !570, metadata !573, metadata !576, metadata !579, metadata !582, metadata !585, metadata !588, metadata !589, metadata !593, metadata !596, metadata !597, metadata !598, metadata !599, metadata !600, metadata !601, metadata !604, metadata !605, metadata !608, metadata !609, metadata !610, metadata !611, metadata !612, metadata !613, metadata !616, metadata !617, metadata !618, metadata !621, metadata !622, metadata !625, metadata !626, metadata !906, metadata !910, metadata !911, metadata !914, metadata !915, metadata !919, metadata !920, metadata !921, metadata !922, metadata !925, metadata !926, metadata !927, metadata !928, metadata !929, metadata !930, metadata !931, metadata !932, metadata !933, metadata !934, metadata !935, metadata !936, metadata !939, metadata !942}
!421 = metadata !{i32 786460, metadata !419, null, metadata !56, i32 0, i64 0, i64 0, i64 0, i32 0, metadata !422} ; [ DW_TAG_inheritance ]
!422 = metadata !{i32 786434, null, metadata !"ssdm_int<8 + 1024 * 0, false>", metadata !60, i32 10, i64 8, i64 8, i32 0, i32 0, null, metadata !423, i32 0, null, metadata !430} ; [ DW_TAG_class_type ]
!423 = metadata !{metadata !424, metadata !426}
!424 = metadata !{i32 786445, metadata !422, metadata !"V", metadata !60, i32 10, i64 8, i64 8, i64 0, i32 0, metadata !425} ; [ DW_TAG_member ]
!425 = metadata !{i32 786468, null, metadata !"uint8", null, i32 0, i64 8, i64 8, i64 0, i32 0, i32 7} ; [ DW_TAG_base_type ]
!426 = metadata !{i32 786478, i32 0, metadata !422, metadata !"ssdm_int", metadata !"ssdm_int", metadata !"", metadata !60, i32 10, metadata !427, i1 false, i1 false, i32 0, i32 0, null, i32 256, i1 false, null, null, i32 0, metadata !68, i32 10} ; [ DW_TAG_subprogram ]
!427 = metadata !{i32 786453, i32 0, metadata !"", i32 0, i32 0, i64 0, i64 0, i64 0, i32 0, null, metadata !428, i32 0, i32 0} ; [ DW_TAG_subroutine_type ]
!428 = metadata !{null, metadata !429}
!429 = metadata !{i32 786447, i32 0, metadata !"", i32 0, i32 0, i64 64, i64 64, i64 0, i32 64, metadata !422} ; [ DW_TAG_pointer_type ]
!430 = metadata !{metadata !210, metadata !431}
!431 = metadata !{i32 786480, null, metadata !"_AP_S", metadata !74, i64 0, null, i32 0, i32 0} ; [ DW_TAG_template_value_parameter ]
!432 = metadata !{i32 786478, i32 0, metadata !419, metadata !"ap_int_base", metadata !"ap_int_base", metadata !"", metadata !56, i32 1438, metadata !433, i1 false, i1 false, i32 0, i32 0, null, i32 256, i1 false, null, null, i32 0, metadata !68, i32 1438} ; [ DW_TAG_subprogram ]
!433 = metadata !{i32 786453, i32 0, metadata !"", i32 0, i32 0, i64 0, i64 0, i64 0, i32 0, null, metadata !434, i32 0, i32 0} ; [ DW_TAG_subroutine_type ]
!434 = metadata !{null, metadata !435}
!435 = metadata !{i32 786447, i32 0, metadata !"", i32 0, i32 0, i64 64, i64 64, i64 0, i32 64, metadata !419} ; [ DW_TAG_pointer_type ]
!436 = metadata !{i32 786478, i32 0, metadata !419, metadata !"ap_int_base<8, false>", metadata !"ap_int_base<8, false>", metadata !"", metadata !56, i32 1450, metadata !437, i1 false, i1 false, i32 0, i32 0, null, i32 256, i1 false, null, metadata !441, i32 0, metadata !68, i32 1450} ; [ DW_TAG_subprogram ]
!437 = metadata !{i32 786453, i32 0, metadata !"", i32 0, i32 0, i64 0, i64 0, i64 0, i32 0, null, metadata !438, i32 0, i32 0} ; [ DW_TAG_subroutine_type ]
!438 = metadata !{null, metadata !435, metadata !439}
!439 = metadata !{i32 786448, null, null, null, i32 0, i64 0, i64 0, i64 0, i32 0, metadata !440} ; [ DW_TAG_reference_type ]
!440 = metadata !{i32 786470, null, metadata !"", null, i32 0, i64 0, i64 0, i64 0, i32 0, metadata !419} ; [ DW_TAG_const_type ]
!441 = metadata !{metadata !442, metadata !443}
!442 = metadata !{i32 786480, null, metadata !"_AP_W2", metadata !72, i64 8, null, i32 0, i32 0} ; [ DW_TAG_template_value_parameter ]
!443 = metadata !{i32 786480, null, metadata !"_AP_S2", metadata !74, i64 0, null, i32 0, i32 0} ; [ DW_TAG_template_value_parameter ]
!444 = metadata !{i32 786478, i32 0, metadata !419, metadata !"ap_int_base<8, false>", metadata !"ap_int_base<8, false>", metadata !"", metadata !56, i32 1453, metadata !445, i1 false, i1 false, i32 0, i32 0, null, i32 256, i1 false, null, metadata !441, i32 0, metadata !68, i32 1453} ; [ DW_TAG_subprogram ]
!445 = metadata !{i32 786453, i32 0, metadata !"", i32 0, i32 0, i64 0, i64 0, i64 0, i32 0, null, metadata !446, i32 0, i32 0} ; [ DW_TAG_subroutine_type ]
!446 = metadata !{null, metadata !435, metadata !447}
!447 = metadata !{i32 786448, null, null, null, i32 0, i64 0, i64 0, i64 0, i32 0, metadata !448} ; [ DW_TAG_reference_type ]
!448 = metadata !{i32 786470, null, metadata !"", null, i32 0, i64 0, i64 0, i64 0, i32 0, metadata !449} ; [ DW_TAG_const_type ]
!449 = metadata !{i32 786485, null, metadata !"", null, i32 0, i64 0, i64 0, i64 0, i32 0, metadata !419} ; [ DW_TAG_volatile_type ]
!450 = metadata !{i32 786478, i32 0, metadata !419, metadata !"ap_int_base", metadata !"ap_int_base", metadata !"", metadata !56, i32 1460, metadata !451, i1 false, i1 false, i32 0, i32 0, null, i32 384, i1 false, null, null, i32 0, metadata !68, i32 1460} ; [ DW_TAG_subprogram ]
!451 = metadata !{i32 786453, i32 0, metadata !"", i32 0, i32 0, i64 0, i64 0, i64 0, i32 0, null, metadata !452, i32 0, i32 0} ; [ DW_TAG_subroutine_type ]
!452 = metadata !{null, metadata !435, metadata !74}
!453 = metadata !{i32 786478, i32 0, metadata !419, metadata !"ap_int_base", metadata !"ap_int_base", metadata !"", metadata !56, i32 1461, metadata !454, i1 false, i1 false, i32 0, i32 0, null, i32 384, i1 false, null, null, i32 0, metadata !68, i32 1461} ; [ DW_TAG_subprogram ]
!454 = metadata !{i32 786453, i32 0, metadata !"", i32 0, i32 0, i64 0, i64 0, i64 0, i32 0, null, metadata !455, i32 0, i32 0} ; [ DW_TAG_subroutine_type ]
!455 = metadata !{null, metadata !435, metadata !99}
!456 = metadata !{i32 786478, i32 0, metadata !419, metadata !"ap_int_base", metadata !"ap_int_base", metadata !"", metadata !56, i32 1462, metadata !457, i1 false, i1 false, i32 0, i32 0, null, i32 384, i1 false, null, null, i32 0, metadata !68, i32 1462} ; [ DW_TAG_subprogram ]
!457 = metadata !{i32 786453, i32 0, metadata !"", i32 0, i32 0, i64 0, i64 0, i64 0, i32 0, null, metadata !458, i32 0, i32 0} ; [ DW_TAG_subroutine_type ]
!458 = metadata !{null, metadata !435, metadata !103}
!459 = metadata !{i32 786478, i32 0, metadata !419, metadata !"ap_int_base", metadata !"ap_int_base", metadata !"", metadata !56, i32 1463, metadata !460, i1 false, i1 false, i32 0, i32 0, null, i32 384, i1 false, null, null, i32 0, metadata !68, i32 1463} ; [ DW_TAG_subprogram ]
!460 = metadata !{i32 786453, i32 0, metadata !"", i32 0, i32 0, i64 0, i64 0, i64 0, i32 0, null, metadata !461, i32 0, i32 0} ; [ DW_TAG_subroutine_type ]
!461 = metadata !{null, metadata !435, metadata !107}
!462 = metadata !{i32 786478, i32 0, metadata !419, metadata !"ap_int_base", metadata !"ap_int_base", metadata !"", metadata !56, i32 1464, metadata !463, i1 false, i1 false, i32 0, i32 0, null, i32 384, i1 false, null, null, i32 0, metadata !68, i32 1464} ; [ DW_TAG_subprogram ]
!463 = metadata !{i32 786453, i32 0, metadata !"", i32 0, i32 0, i64 0, i64 0, i64 0, i32 0, null, metadata !464, i32 0, i32 0} ; [ DW_TAG_subroutine_type ]
!464 = metadata !{null, metadata !435, metadata !111}
!465 = metadata !{i32 786478, i32 0, metadata !419, metadata !"ap_int_base", metadata !"ap_int_base", metadata !"", metadata !56, i32 1465, metadata !466, i1 false, i1 false, i32 0, i32 0, null, i32 384, i1 false, null, null, i32 0, metadata !68, i32 1465} ; [ DW_TAG_subprogram ]
!466 = metadata !{i32 786453, i32 0, metadata !"", i32 0, i32 0, i64 0, i64 0, i64 0, i32 0, null, metadata !467, i32 0, i32 0} ; [ DW_TAG_subroutine_type ]
!467 = metadata !{null, metadata !435, metadata !72}
!468 = metadata !{i32 786478, i32 0, metadata !419, metadata !"ap_int_base", metadata !"ap_int_base", metadata !"", metadata !56, i32 1466, metadata !469, i1 false, i1 false, i32 0, i32 0, null, i32 384, i1 false, null, null, i32 0, metadata !68, i32 1466} ; [ DW_TAG_subprogram ]
!469 = metadata !{i32 786453, i32 0, metadata !"", i32 0, i32 0, i64 0, i64 0, i64 0, i32 0, null, metadata !470, i32 0, i32 0} ; [ DW_TAG_subroutine_type ]
!470 = metadata !{null, metadata !435, metadata !118}
!471 = metadata !{i32 786478, i32 0, metadata !419, metadata !"ap_int_base", metadata !"ap_int_base", metadata !"", metadata !56, i32 1467, metadata !472, i1 false, i1 false, i32 0, i32 0, null, i32 384, i1 false, null, null, i32 0, metadata !68, i32 1467} ; [ DW_TAG_subprogram ]
!472 = metadata !{i32 786453, i32 0, metadata !"", i32 0, i32 0, i64 0, i64 0, i64 0, i32 0, null, metadata !473, i32 0, i32 0} ; [ DW_TAG_subroutine_type ]
!473 = metadata !{null, metadata !435, metadata !122}
!474 = metadata !{i32 786478, i32 0, metadata !419, metadata !"ap_int_base", metadata !"ap_int_base", metadata !"", metadata !56, i32 1468, metadata !475, i1 false, i1 false, i32 0, i32 0, null, i32 384, i1 false, null, null, i32 0, metadata !68, i32 1468} ; [ DW_TAG_subprogram ]
!475 = metadata !{i32 786453, i32 0, metadata !"", i32 0, i32 0, i64 0, i64 0, i64 0, i32 0, null, metadata !476, i32 0, i32 0} ; [ DW_TAG_subroutine_type ]
!476 = metadata !{null, metadata !435, metadata !126}
!477 = metadata !{i32 786478, i32 0, metadata !419, metadata !"ap_int_base", metadata !"ap_int_base", metadata !"", metadata !56, i32 1469, metadata !478, i1 false, i1 false, i32 0, i32 0, null, i32 384, i1 false, null, null, i32 0, metadata !68, i32 1469} ; [ DW_TAG_subprogram ]
!478 = metadata !{i32 786453, i32 0, metadata !"", i32 0, i32 0, i64 0, i64 0, i64 0, i32 0, null, metadata !479, i32 0, i32 0} ; [ DW_TAG_subroutine_type ]
!479 = metadata !{null, metadata !435, metadata !130}
!480 = metadata !{i32 786478, i32 0, metadata !419, metadata !"ap_int_base", metadata !"ap_int_base", metadata !"", metadata !56, i32 1470, metadata !481, i1 false, i1 false, i32 0, i32 0, null, i32 384, i1 false, null, null, i32 0, metadata !68, i32 1470} ; [ DW_TAG_subprogram ]
!481 = metadata !{i32 786453, i32 0, metadata !"", i32 0, i32 0, i64 0, i64 0, i64 0, i32 0, null, metadata !482, i32 0, i32 0} ; [ DW_TAG_subroutine_type ]
!482 = metadata !{null, metadata !435, metadata !135}
!483 = metadata !{i32 786478, i32 0, metadata !419, metadata !"ap_int_base", metadata !"ap_int_base", metadata !"", metadata !56, i32 1471, metadata !484, i1 false, i1 false, i32 0, i32 0, null, i32 384, i1 false, null, null, i32 0, metadata !68, i32 1471} ; [ DW_TAG_subprogram ]
!484 = metadata !{i32 786453, i32 0, metadata !"", i32 0, i32 0, i64 0, i64 0, i64 0, i32 0, null, metadata !485, i32 0, i32 0} ; [ DW_TAG_subroutine_type ]
!485 = metadata !{null, metadata !435, metadata !140}
!486 = metadata !{i32 786478, i32 0, metadata !419, metadata !"ap_int_base", metadata !"ap_int_base", metadata !"", metadata !56, i32 1472, metadata !487, i1 false, i1 false, i32 0, i32 0, null, i32 384, i1 false, null, null, i32 0, metadata !68, i32 1472} ; [ DW_TAG_subprogram ]
!487 = metadata !{i32 786453, i32 0, metadata !"", i32 0, i32 0, i64 0, i64 0, i64 0, i32 0, null, metadata !488, i32 0, i32 0} ; [ DW_TAG_subroutine_type ]
!488 = metadata !{null, metadata !435, metadata !144}
!489 = metadata !{i32 786478, i32 0, metadata !419, metadata !"ap_int_base", metadata !"ap_int_base", metadata !"", metadata !56, i32 1499, metadata !490, i1 false, i1 false, i32 0, i32 0, null, i32 256, i1 false, null, null, i32 0, metadata !68, i32 1499} ; [ DW_TAG_subprogram ]
!490 = metadata !{i32 786453, i32 0, metadata !"", i32 0, i32 0, i64 0, i64 0, i64 0, i32 0, null, metadata !491, i32 0, i32 0} ; [ DW_TAG_subroutine_type ]
!491 = metadata !{null, metadata !435, metadata !148}
!492 = metadata !{i32 786478, i32 0, metadata !419, metadata !"ap_int_base", metadata !"ap_int_base", metadata !"", metadata !56, i32 1506, metadata !493, i1 false, i1 false, i32 0, i32 0, null, i32 256, i1 false, null, null, i32 0, metadata !68, i32 1506} ; [ DW_TAG_subprogram ]
!493 = metadata !{i32 786453, i32 0, metadata !"", i32 0, i32 0, i64 0, i64 0, i64 0, i32 0, null, metadata !494, i32 0, i32 0} ; [ DW_TAG_subroutine_type ]
!494 = metadata !{null, metadata !435, metadata !148, metadata !99}
!495 = metadata !{i32 786478, i32 0, metadata !419, metadata !"read", metadata !"read", metadata !"_ZNV11ap_int_baseILi8ELb0ELb1EE4readEv", metadata !56, i32 1527, metadata !496, i1 false, i1 false, i32 0, i32 0, null, i32 256, i1 false, null, null, i32 0, metadata !68, i32 1527} ; [ DW_TAG_subprogram ]
!496 = metadata !{i32 786453, i32 0, metadata !"", i32 0, i32 0, i64 0, i64 0, i64 0, i32 0, null, metadata !497, i32 0, i32 0} ; [ DW_TAG_subroutine_type ]
!497 = metadata !{metadata !419, metadata !498}
!498 = metadata !{i32 786447, i32 0, metadata !"", i32 0, i32 0, i64 64, i64 64, i64 0, i32 64, metadata !449} ; [ DW_TAG_pointer_type ]
!499 = metadata !{i32 786478, i32 0, metadata !419, metadata !"write", metadata !"write", metadata !"_ZNV11ap_int_baseILi8ELb0ELb1EE5writeERKS0_", metadata !56, i32 1533, metadata !500, i1 false, i1 false, i32 0, i32 0, null, i32 256, i1 false, null, null, i32 0, metadata !68, i32 1533} ; [ DW_TAG_subprogram ]
!500 = metadata !{i32 786453, i32 0, metadata !"", i32 0, i32 0, i64 0, i64 0, i64 0, i32 0, null, metadata !501, i32 0, i32 0} ; [ DW_TAG_subroutine_type ]
!501 = metadata !{null, metadata !498, metadata !439}
!502 = metadata !{i32 786478, i32 0, metadata !419, metadata !"operator=", metadata !"operator=", metadata !"_ZNV11ap_int_baseILi8ELb0ELb1EEaSERVKS0_", metadata !56, i32 1545, metadata !503, i1 false, i1 false, i32 0, i32 0, null, i32 256, i1 false, null, null, i32 0, metadata !68, i32 1545} ; [ DW_TAG_subprogram ]
!503 = metadata !{i32 786453, i32 0, metadata !"", i32 0, i32 0, i64 0, i64 0, i64 0, i32 0, null, metadata !504, i32 0, i32 0} ; [ DW_TAG_subroutine_type ]
!504 = metadata !{null, metadata !498, metadata !447}
!505 = metadata !{i32 786478, i32 0, metadata !419, metadata !"operator=", metadata !"operator=", metadata !"_ZNV11ap_int_baseILi8ELb0ELb1EEaSERKS0_", metadata !56, i32 1554, metadata !500, i1 false, i1 false, i32 0, i32 0, null, i32 256, i1 false, null, null, i32 0, metadata !68, i32 1554} ; [ DW_TAG_subprogram ]
!506 = metadata !{i32 786478, i32 0, metadata !419, metadata !"operator=", metadata !"operator=", metadata !"_ZN11ap_int_baseILi8ELb0ELb1EEaSERVKS0_", metadata !56, i32 1577, metadata !507, i1 false, i1 false, i32 0, i32 0, null, i32 256, i1 false, null, null, i32 0, metadata !68, i32 1577} ; [ DW_TAG_subprogram ]
!507 = metadata !{i32 786453, i32 0, metadata !"", i32 0, i32 0, i64 0, i64 0, i64 0, i32 0, null, metadata !508, i32 0, i32 0} ; [ DW_TAG_subroutine_type ]
!508 = metadata !{metadata !509, metadata !435, metadata !447}
!509 = metadata !{i32 786448, null, null, null, i32 0, i64 0, i64 0, i64 0, i32 0, metadata !419} ; [ DW_TAG_reference_type ]
!510 = metadata !{i32 786478, i32 0, metadata !419, metadata !"operator=", metadata !"operator=", metadata !"_ZN11ap_int_baseILi8ELb0ELb1EEaSERKS0_", metadata !56, i32 1582, metadata !511, i1 false, i1 false, i32 0, i32 0, null, i32 256, i1 false, null, null, i32 0, metadata !68, i32 1582} ; [ DW_TAG_subprogram ]
!511 = metadata !{i32 786453, i32 0, metadata !"", i32 0, i32 0, i64 0, i64 0, i64 0, i32 0, null, metadata !512, i32 0, i32 0} ; [ DW_TAG_subroutine_type ]
!512 = metadata !{metadata !509, metadata !435, metadata !439}
!513 = metadata !{i32 786478, i32 0, metadata !419, metadata !"operator=", metadata !"operator=", metadata !"_ZN11ap_int_baseILi8ELb0ELb1EEaSEPKc", metadata !56, i32 1586, metadata !514, i1 false, i1 false, i32 0, i32 0, null, i32 256, i1 false, null, null, i32 0, metadata !68, i32 1586} ; [ DW_TAG_subprogram ]
!514 = metadata !{i32 786453, i32 0, metadata !"", i32 0, i32 0, i64 0, i64 0, i64 0, i32 0, null, metadata !515, i32 0, i32 0} ; [ DW_TAG_subroutine_type ]
!515 = metadata !{metadata !509, metadata !435, metadata !148}
!516 = metadata !{i32 786478, i32 0, metadata !419, metadata !"set", metadata !"set", metadata !"_ZN11ap_int_baseILi8ELb0ELb1EE3setEPKca", metadata !56, i32 1594, metadata !517, i1 false, i1 false, i32 0, i32 0, null, i32 256, i1 false, null, null, i32 0, metadata !68, i32 1594} ; [ DW_TAG_subprogram ]
!517 = metadata !{i32 786453, i32 0, metadata !"", i32 0, i32 0, i64 0, i64 0, i64 0, i32 0, null, metadata !518, i32 0, i32 0} ; [ DW_TAG_subroutine_type ]
!518 = metadata !{metadata !509, metadata !435, metadata !148, metadata !99}
!519 = metadata !{i32 786478, i32 0, metadata !419, metadata !"operator=", metadata !"operator=", metadata !"_ZN11ap_int_baseILi8ELb0ELb1EEaSEa", metadata !56, i32 1608, metadata !520, i1 false, i1 false, i32 0, i32 0, null, i32 256, i1 false, null, null, i32 0, metadata !68, i32 1608} ; [ DW_TAG_subprogram ]
!520 = metadata !{i32 786453, i32 0, metadata !"", i32 0, i32 0, i64 0, i64 0, i64 0, i32 0, null, metadata !521, i32 0, i32 0} ; [ DW_TAG_subroutine_type ]
!521 = metadata !{metadata !509, metadata !435, metadata !99}
!522 = metadata !{i32 786478, i32 0, metadata !419, metadata !"operator=", metadata !"operator=", metadata !"_ZN11ap_int_baseILi8ELb0ELb1EEaSEh", metadata !56, i32 1609, metadata !523, i1 false, i1 false, i32 0, i32 0, null, i32 256, i1 false, null, null, i32 0, metadata !68, i32 1609} ; [ DW_TAG_subprogram ]
!523 = metadata !{i32 786453, i32 0, metadata !"", i32 0, i32 0, i64 0, i64 0, i64 0, i32 0, null, metadata !524, i32 0, i32 0} ; [ DW_TAG_subroutine_type ]
!524 = metadata !{metadata !509, metadata !435, metadata !103}
!525 = metadata !{i32 786478, i32 0, metadata !419, metadata !"operator=", metadata !"operator=", metadata !"_ZN11ap_int_baseILi8ELb0ELb1EEaSEs", metadata !56, i32 1610, metadata !526, i1 false, i1 false, i32 0, i32 0, null, i32 256, i1 false, null, null, i32 0, metadata !68, i32 1610} ; [ DW_TAG_subprogram ]
!526 = metadata !{i32 786453, i32 0, metadata !"", i32 0, i32 0, i64 0, i64 0, i64 0, i32 0, null, metadata !527, i32 0, i32 0} ; [ DW_TAG_subroutine_type ]
!527 = metadata !{metadata !509, metadata !435, metadata !107}
!528 = metadata !{i32 786478, i32 0, metadata !419, metadata !"operator=", metadata !"operator=", metadata !"_ZN11ap_int_baseILi8ELb0ELb1EEaSEt", metadata !56, i32 1611, metadata !529, i1 false, i1 false, i32 0, i32 0, null, i32 256, i1 false, null, null, i32 0, metadata !68, i32 1611} ; [ DW_TAG_subprogram ]
!529 = metadata !{i32 786453, i32 0, metadata !"", i32 0, i32 0, i64 0, i64 0, i64 0, i32 0, null, metadata !530, i32 0, i32 0} ; [ DW_TAG_subroutine_type ]
!530 = metadata !{metadata !509, metadata !435, metadata !111}
!531 = metadata !{i32 786478, i32 0, metadata !419, metadata !"operator=", metadata !"operator=", metadata !"_ZN11ap_int_baseILi8ELb0ELb1EEaSEi", metadata !56, i32 1612, metadata !532, i1 false, i1 false, i32 0, i32 0, null, i32 256, i1 false, null, null, i32 0, metadata !68, i32 1612} ; [ DW_TAG_subprogram ]
!532 = metadata !{i32 786453, i32 0, metadata !"", i32 0, i32 0, i64 0, i64 0, i64 0, i32 0, null, metadata !533, i32 0, i32 0} ; [ DW_TAG_subroutine_type ]
!533 = metadata !{metadata !509, metadata !435, metadata !72}
!534 = metadata !{i32 786478, i32 0, metadata !419, metadata !"operator=", metadata !"operator=", metadata !"_ZN11ap_int_baseILi8ELb0ELb1EEaSEj", metadata !56, i32 1613, metadata !535, i1 false, i1 false, i32 0, i32 0, null, i32 256, i1 false, null, null, i32 0, metadata !68, i32 1613} ; [ DW_TAG_subprogram ]
!535 = metadata !{i32 786453, i32 0, metadata !"", i32 0, i32 0, i64 0, i64 0, i64 0, i32 0, null, metadata !536, i32 0, i32 0} ; [ DW_TAG_subroutine_type ]
!536 = metadata !{metadata !509, metadata !435, metadata !118}
!537 = metadata !{i32 786478, i32 0, metadata !419, metadata !"operator=", metadata !"operator=", metadata !"_ZN11ap_int_baseILi8ELb0ELb1EEaSEx", metadata !56, i32 1614, metadata !538, i1 false, i1 false, i32 0, i32 0, null, i32 256, i1 false, null, null, i32 0, metadata !68, i32 1614} ; [ DW_TAG_subprogram ]
!538 = metadata !{i32 786453, i32 0, metadata !"", i32 0, i32 0, i64 0, i64 0, i64 0, i32 0, null, metadata !539, i32 0, i32 0} ; [ DW_TAG_subroutine_type ]
!539 = metadata !{metadata !509, metadata !435, metadata !130}
!540 = metadata !{i32 786478, i32 0, metadata !419, metadata !"operator=", metadata !"operator=", metadata !"_ZN11ap_int_baseILi8ELb0ELb1EEaSEy", metadata !56, i32 1615, metadata !541, i1 false, i1 false, i32 0, i32 0, null, i32 256, i1 false, null, null, i32 0, metadata !68, i32 1615} ; [ DW_TAG_subprogram ]
!541 = metadata !{i32 786453, i32 0, metadata !"", i32 0, i32 0, i64 0, i64 0, i64 0, i32 0, null, metadata !542, i32 0, i32 0} ; [ DW_TAG_subroutine_type ]
!542 = metadata !{metadata !509, metadata !435, metadata !135}
!543 = metadata !{i32 786478, i32 0, metadata !419, metadata !"operator unsigned char", metadata !"operator unsigned char", metadata !"_ZNK11ap_int_baseILi8ELb0ELb1EEcvhEv", metadata !56, i32 1653, metadata !544, i1 false, i1 false, i32 0, i32 0, null, i32 256, i1 false, null, null, i32 0, metadata !68, i32 1653} ; [ DW_TAG_subprogram ]
!544 = metadata !{i32 786453, i32 0, metadata !"", i32 0, i32 0, i64 0, i64 0, i64 0, i32 0, null, metadata !545, i32 0, i32 0} ; [ DW_TAG_subroutine_type ]
!545 = metadata !{metadata !546, metadata !551}
!546 = metadata !{i32 786454, metadata !419, metadata !"RetType", metadata !56, i32 1402, i64 0, i64 0, i64 0, i32 0, metadata !547} ; [ DW_TAG_typedef ]
!547 = metadata !{i32 786454, metadata !548, metadata !"Type", metadata !56, i32 1370, i64 0, i64 0, i64 0, i32 0, metadata !103} ; [ DW_TAG_typedef ]
!548 = metadata !{i32 786434, null, metadata !"retval<1, false>", metadata !56, i32 1369, i64 8, i64 8, i32 0, i32 0, null, metadata !208, i32 0, null, metadata !549} ; [ DW_TAG_class_type ]
!549 = metadata !{metadata !550, metadata !431}
!550 = metadata !{i32 786480, null, metadata !"_AP_N", metadata !72, i64 1, null, i32 0, i32 0} ; [ DW_TAG_template_value_parameter ]
!551 = metadata !{i32 786447, i32 0, metadata !"", i32 0, i32 0, i64 64, i64 64, i64 0, i32 64, metadata !440} ; [ DW_TAG_pointer_type ]
!552 = metadata !{i32 786478, i32 0, metadata !419, metadata !"to_bool", metadata !"to_bool", metadata !"_ZNK11ap_int_baseILi8ELb0ELb1EE7to_boolEv", metadata !56, i32 1659, metadata !553, i1 false, i1 false, i32 0, i32 0, null, i32 256, i1 false, null, null, i32 0, metadata !68, i32 1659} ; [ DW_TAG_subprogram ]
!553 = metadata !{i32 786453, i32 0, metadata !"", i32 0, i32 0, i64 0, i64 0, i64 0, i32 0, null, metadata !554, i32 0, i32 0} ; [ DW_TAG_subroutine_type ]
!554 = metadata !{metadata !74, metadata !551}
!555 = metadata !{i32 786478, i32 0, metadata !419, metadata !"to_uchar", metadata !"to_uchar", metadata !"_ZNK11ap_int_baseILi8ELb0ELb1EE8to_ucharEv", metadata !56, i32 1660, metadata !556, i1 false, i1 false, i32 0, i32 0, null, i32 256, i1 false, null, null, i32 0, metadata !68, i32 1660} ; [ DW_TAG_subprogram ]
!556 = metadata !{i32 786453, i32 0, metadata !"", i32 0, i32 0, i64 0, i64 0, i64 0, i32 0, null, metadata !557, i32 0, i32 0} ; [ DW_TAG_subroutine_type ]
!557 = metadata !{metadata !103, metadata !551}
!558 = metadata !{i32 786478, i32 0, metadata !419, metadata !"to_char", metadata !"to_char", metadata !"_ZNK11ap_int_baseILi8ELb0ELb1EE7to_charEv", metadata !56, i32 1661, metadata !559, i1 false, i1 false, i32 0, i32 0, null, i32 256, i1 false, null, null, i32 0, metadata !68, i32 1661} ; [ DW_TAG_subprogram ]
!559 = metadata !{i32 786453, i32 0, metadata !"", i32 0, i32 0, i64 0, i64 0, i64 0, i32 0, null, metadata !560, i32 0, i32 0} ; [ DW_TAG_subroutine_type ]
!560 = metadata !{metadata !99, metadata !551}
!561 = metadata !{i32 786478, i32 0, metadata !419, metadata !"to_ushort", metadata !"to_ushort", metadata !"_ZNK11ap_int_baseILi8ELb0ELb1EE9to_ushortEv", metadata !56, i32 1662, metadata !562, i1 false, i1 false, i32 0, i32 0, null, i32 256, i1 false, null, null, i32 0, metadata !68, i32 1662} ; [ DW_TAG_subprogram ]
!562 = metadata !{i32 786453, i32 0, metadata !"", i32 0, i32 0, i64 0, i64 0, i64 0, i32 0, null, metadata !563, i32 0, i32 0} ; [ DW_TAG_subroutine_type ]
!563 = metadata !{metadata !111, metadata !551}
!564 = metadata !{i32 786478, i32 0, metadata !419, metadata !"to_short", metadata !"to_short", metadata !"_ZNK11ap_int_baseILi8ELb0ELb1EE8to_shortEv", metadata !56, i32 1663, metadata !565, i1 false, i1 false, i32 0, i32 0, null, i32 256, i1 false, null, null, i32 0, metadata !68, i32 1663} ; [ DW_TAG_subprogram ]
!565 = metadata !{i32 786453, i32 0, metadata !"", i32 0, i32 0, i64 0, i64 0, i64 0, i32 0, null, metadata !566, i32 0, i32 0} ; [ DW_TAG_subroutine_type ]
!566 = metadata !{metadata !107, metadata !551}
!567 = metadata !{i32 786478, i32 0, metadata !419, metadata !"to_int", metadata !"to_int", metadata !"_ZNK11ap_int_baseILi8ELb0ELb1EE6to_intEv", metadata !56, i32 1664, metadata !568, i1 false, i1 false, i32 0, i32 0, null, i32 256, i1 false, null, null, i32 0, metadata !68, i32 1664} ; [ DW_TAG_subprogram ]
!568 = metadata !{i32 786453, i32 0, metadata !"", i32 0, i32 0, i64 0, i64 0, i64 0, i32 0, null, metadata !569, i32 0, i32 0} ; [ DW_TAG_subroutine_type ]
!569 = metadata !{metadata !72, metadata !551}
!570 = metadata !{i32 786478, i32 0, metadata !419, metadata !"to_uint", metadata !"to_uint", metadata !"_ZNK11ap_int_baseILi8ELb0ELb1EE7to_uintEv", metadata !56, i32 1665, metadata !571, i1 false, i1 false, i32 0, i32 0, null, i32 256, i1 false, null, null, i32 0, metadata !68, i32 1665} ; [ DW_TAG_subprogram ]
!571 = metadata !{i32 786453, i32 0, metadata !"", i32 0, i32 0, i64 0, i64 0, i64 0, i32 0, null, metadata !572, i32 0, i32 0} ; [ DW_TAG_subroutine_type ]
!572 = metadata !{metadata !118, metadata !551}
!573 = metadata !{i32 786478, i32 0, metadata !419, metadata !"to_long", metadata !"to_long", metadata !"_ZNK11ap_int_baseILi8ELb0ELb1EE7to_longEv", metadata !56, i32 1666, metadata !574, i1 false, i1 false, i32 0, i32 0, null, i32 256, i1 false, null, null, i32 0, metadata !68, i32 1666} ; [ DW_TAG_subprogram ]
!574 = metadata !{i32 786453, i32 0, metadata !"", i32 0, i32 0, i64 0, i64 0, i64 0, i32 0, null, metadata !575, i32 0, i32 0} ; [ DW_TAG_subroutine_type ]
!575 = metadata !{metadata !122, metadata !551}
!576 = metadata !{i32 786478, i32 0, metadata !419, metadata !"to_ulong", metadata !"to_ulong", metadata !"_ZNK11ap_int_baseILi8ELb0ELb1EE8to_ulongEv", metadata !56, i32 1667, metadata !577, i1 false, i1 false, i32 0, i32 0, null, i32 256, i1 false, null, null, i32 0, metadata !68, i32 1667} ; [ DW_TAG_subprogram ]
!577 = metadata !{i32 786453, i32 0, metadata !"", i32 0, i32 0, i64 0, i64 0, i64 0, i32 0, null, metadata !578, i32 0, i32 0} ; [ DW_TAG_subroutine_type ]
!578 = metadata !{metadata !126, metadata !551}
!579 = metadata !{i32 786478, i32 0, metadata !419, metadata !"to_int64", metadata !"to_int64", metadata !"_ZNK11ap_int_baseILi8ELb0ELb1EE8to_int64Ev", metadata !56, i32 1668, metadata !580, i1 false, i1 false, i32 0, i32 0, null, i32 256, i1 false, null, null, i32 0, metadata !68, i32 1668} ; [ DW_TAG_subprogram ]
!580 = metadata !{i32 786453, i32 0, metadata !"", i32 0, i32 0, i64 0, i64 0, i64 0, i32 0, null, metadata !581, i32 0, i32 0} ; [ DW_TAG_subroutine_type ]
!581 = metadata !{metadata !130, metadata !551}
!582 = metadata !{i32 786478, i32 0, metadata !419, metadata !"to_uint64", metadata !"to_uint64", metadata !"_ZNK11ap_int_baseILi8ELb0ELb1EE9to_uint64Ev", metadata !56, i32 1669, metadata !583, i1 false, i1 false, i32 0, i32 0, null, i32 256, i1 false, null, null, i32 0, metadata !68, i32 1669} ; [ DW_TAG_subprogram ]
!583 = metadata !{i32 786453, i32 0, metadata !"", i32 0, i32 0, i64 0, i64 0, i64 0, i32 0, null, metadata !584, i32 0, i32 0} ; [ DW_TAG_subroutine_type ]
!584 = metadata !{metadata !135, metadata !551}
!585 = metadata !{i32 786478, i32 0, metadata !419, metadata !"to_double", metadata !"to_double", metadata !"_ZNK11ap_int_baseILi8ELb0ELb1EE9to_doubleEv", metadata !56, i32 1670, metadata !586, i1 false, i1 false, i32 0, i32 0, null, i32 256, i1 false, null, null, i32 0, metadata !68, i32 1670} ; [ DW_TAG_subprogram ]
!586 = metadata !{i32 786453, i32 0, metadata !"", i32 0, i32 0, i64 0, i64 0, i64 0, i32 0, null, metadata !587, i32 0, i32 0} ; [ DW_TAG_subroutine_type ]
!587 = metadata !{metadata !144, metadata !551}
!588 = metadata !{i32 786478, i32 0, metadata !419, metadata !"length", metadata !"length", metadata !"_ZNK11ap_int_baseILi8ELb0ELb1EE6lengthEv", metadata !56, i32 1684, metadata !568, i1 false, i1 false, i32 0, i32 0, null, i32 256, i1 false, null, null, i32 0, metadata !68, i32 1684} ; [ DW_TAG_subprogram ]
!589 = metadata !{i32 786478, i32 0, metadata !419, metadata !"length", metadata !"length", metadata !"_ZNVK11ap_int_baseILi8ELb0ELb1EE6lengthEv", metadata !56, i32 1685, metadata !590, i1 false, i1 false, i32 0, i32 0, null, i32 256, i1 false, null, null, i32 0, metadata !68, i32 1685} ; [ DW_TAG_subprogram ]
!590 = metadata !{i32 786453, i32 0, metadata !"", i32 0, i32 0, i64 0, i64 0, i64 0, i32 0, null, metadata !591, i32 0, i32 0} ; [ DW_TAG_subroutine_type ]
!591 = metadata !{metadata !72, metadata !592}
!592 = metadata !{i32 786447, i32 0, metadata !"", i32 0, i32 0, i64 64, i64 64, i64 0, i32 64, metadata !448} ; [ DW_TAG_pointer_type ]
!593 = metadata !{i32 786478, i32 0, metadata !419, metadata !"reverse", metadata !"reverse", metadata !"_ZN11ap_int_baseILi8ELb0ELb1EE7reverseEv", metadata !56, i32 1690, metadata !594, i1 false, i1 false, i32 0, i32 0, null, i32 256, i1 false, null, null, i32 0, metadata !68, i32 1690} ; [ DW_TAG_subprogram ]
!594 = metadata !{i32 786453, i32 0, metadata !"", i32 0, i32 0, i64 0, i64 0, i64 0, i32 0, null, metadata !595, i32 0, i32 0} ; [ DW_TAG_subroutine_type ]
!595 = metadata !{metadata !509, metadata !435}
!596 = metadata !{i32 786478, i32 0, metadata !419, metadata !"iszero", metadata !"iszero", metadata !"_ZNK11ap_int_baseILi8ELb0ELb1EE6iszeroEv", metadata !56, i32 1696, metadata !553, i1 false, i1 false, i32 0, i32 0, null, i32 256, i1 false, null, null, i32 0, metadata !68, i32 1696} ; [ DW_TAG_subprogram ]
!597 = metadata !{i32 786478, i32 0, metadata !419, metadata !"is_zero", metadata !"is_zero", metadata !"_ZNK11ap_int_baseILi8ELb0ELb1EE7is_zeroEv", metadata !56, i32 1701, metadata !553, i1 false, i1 false, i32 0, i32 0, null, i32 256, i1 false, null, null, i32 0, metadata !68, i32 1701} ; [ DW_TAG_subprogram ]
!598 = metadata !{i32 786478, i32 0, metadata !419, metadata !"sign", metadata !"sign", metadata !"_ZNK11ap_int_baseILi8ELb0ELb1EE4signEv", metadata !56, i32 1706, metadata !553, i1 false, i1 false, i32 0, i32 0, null, i32 256, i1 false, null, null, i32 0, metadata !68, i32 1706} ; [ DW_TAG_subprogram ]
!599 = metadata !{i32 786478, i32 0, metadata !419, metadata !"clear", metadata !"clear", metadata !"_ZN11ap_int_baseILi8ELb0ELb1EE5clearEi", metadata !56, i32 1714, metadata !466, i1 false, i1 false, i32 0, i32 0, null, i32 256, i1 false, null, null, i32 0, metadata !68, i32 1714} ; [ DW_TAG_subprogram ]
!600 = metadata !{i32 786478, i32 0, metadata !419, metadata !"invert", metadata !"invert", metadata !"_ZN11ap_int_baseILi8ELb0ELb1EE6invertEi", metadata !56, i32 1720, metadata !466, i1 false, i1 false, i32 0, i32 0, null, i32 256, i1 false, null, null, i32 0, metadata !68, i32 1720} ; [ DW_TAG_subprogram ]
!601 = metadata !{i32 786478, i32 0, metadata !419, metadata !"test", metadata !"test", metadata !"_ZNK11ap_int_baseILi8ELb0ELb1EE4testEi", metadata !56, i32 1728, metadata !602, i1 false, i1 false, i32 0, i32 0, null, i32 256, i1 false, null, null, i32 0, metadata !68, i32 1728} ; [ DW_TAG_subprogram ]
!602 = metadata !{i32 786453, i32 0, metadata !"", i32 0, i32 0, i64 0, i64 0, i64 0, i32 0, null, metadata !603, i32 0, i32 0} ; [ DW_TAG_subroutine_type ]
!603 = metadata !{metadata !74, metadata !551, metadata !72}
!604 = metadata !{i32 786478, i32 0, metadata !419, metadata !"set", metadata !"set", metadata !"_ZN11ap_int_baseILi8ELb0ELb1EE3setEi", metadata !56, i32 1734, metadata !466, i1 false, i1 false, i32 0, i32 0, null, i32 256, i1 false, null, null, i32 0, metadata !68, i32 1734} ; [ DW_TAG_subprogram ]
!605 = metadata !{i32 786478, i32 0, metadata !419, metadata !"set", metadata !"set", metadata !"_ZN11ap_int_baseILi8ELb0ELb1EE3setEib", metadata !56, i32 1740, metadata !606, i1 false, i1 false, i32 0, i32 0, null, i32 256, i1 false, null, null, i32 0, metadata !68, i32 1740} ; [ DW_TAG_subprogram ]
!606 = metadata !{i32 786453, i32 0, metadata !"", i32 0, i32 0, i64 0, i64 0, i64 0, i32 0, null, metadata !607, i32 0, i32 0} ; [ DW_TAG_subroutine_type ]
!607 = metadata !{null, metadata !435, metadata !72, metadata !74}
!608 = metadata !{i32 786478, i32 0, metadata !419, metadata !"lrotate", metadata !"lrotate", metadata !"_ZN11ap_int_baseILi8ELb0ELb1EE7lrotateEi", metadata !56, i32 1747, metadata !466, i1 false, i1 false, i32 0, i32 0, null, i32 256, i1 false, null, null, i32 0, metadata !68, i32 1747} ; [ DW_TAG_subprogram ]
!609 = metadata !{i32 786478, i32 0, metadata !419, metadata !"rrotate", metadata !"rrotate", metadata !"_ZN11ap_int_baseILi8ELb0ELb1EE7rrotateEi", metadata !56, i32 1756, metadata !466, i1 false, i1 false, i32 0, i32 0, null, i32 256, i1 false, null, null, i32 0, metadata !68, i32 1756} ; [ DW_TAG_subprogram ]
!610 = metadata !{i32 786478, i32 0, metadata !419, metadata !"set_bit", metadata !"set_bit", metadata !"_ZN11ap_int_baseILi8ELb0ELb1EE7set_bitEib", metadata !56, i32 1764, metadata !606, i1 false, i1 false, i32 0, i32 0, null, i32 256, i1 false, null, null, i32 0, metadata !68, i32 1764} ; [ DW_TAG_subprogram ]
!611 = metadata !{i32 786478, i32 0, metadata !419, metadata !"get_bit", metadata !"get_bit", metadata !"_ZNK11ap_int_baseILi8ELb0ELb1EE7get_bitEi", metadata !56, i32 1769, metadata !602, i1 false, i1 false, i32 0, i32 0, null, i32 256, i1 false, null, null, i32 0, metadata !68, i32 1769} ; [ DW_TAG_subprogram ]
!612 = metadata !{i32 786478, i32 0, metadata !419, metadata !"b_not", metadata !"b_not", metadata !"_ZN11ap_int_baseILi8ELb0ELb1EE5b_notEv", metadata !56, i32 1774, metadata !433, i1 false, i1 false, i32 0, i32 0, null, i32 256, i1 false, null, null, i32 0, metadata !68, i32 1774} ; [ DW_TAG_subprogram ]
!613 = metadata !{i32 786478, i32 0, metadata !419, metadata !"countLeadingZeros", metadata !"countLeadingZeros", metadata !"_ZN11ap_int_baseILi8ELb0ELb1EE17countLeadingZerosEv", metadata !56, i32 1781, metadata !614, i1 false, i1 false, i32 0, i32 0, null, i32 256, i1 false, null, null, i32 0, metadata !68, i32 1781} ; [ DW_TAG_subprogram ]
!614 = metadata !{i32 786453, i32 0, metadata !"", i32 0, i32 0, i64 0, i64 0, i64 0, i32 0, null, metadata !615, i32 0, i32 0} ; [ DW_TAG_subroutine_type ]
!615 = metadata !{metadata !72, metadata !435}
!616 = metadata !{i32 786478, i32 0, metadata !419, metadata !"operator++", metadata !"operator++", metadata !"_ZN11ap_int_baseILi8ELb0ELb1EEppEv", metadata !56, i32 1838, metadata !594, i1 false, i1 false, i32 0, i32 0, null, i32 256, i1 false, null, null, i32 0, metadata !68, i32 1838} ; [ DW_TAG_subprogram ]
!617 = metadata !{i32 786478, i32 0, metadata !419, metadata !"operator--", metadata !"operator--", metadata !"_ZN11ap_int_baseILi8ELb0ELb1EEmmEv", metadata !56, i32 1842, metadata !594, i1 false, i1 false, i32 0, i32 0, null, i32 256, i1 false, null, null, i32 0, metadata !68, i32 1842} ; [ DW_TAG_subprogram ]
!618 = metadata !{i32 786478, i32 0, metadata !419, metadata !"operator++", metadata !"operator++", metadata !"_ZN11ap_int_baseILi8ELb0ELb1EEppEi", metadata !56, i32 1850, metadata !619, i1 false, i1 false, i32 0, i32 0, null, i32 256, i1 false, null, null, i32 0, metadata !68, i32 1850} ; [ DW_TAG_subprogram ]
!619 = metadata !{i32 786453, i32 0, metadata !"", i32 0, i32 0, i64 0, i64 0, i64 0, i32 0, null, metadata !620, i32 0, i32 0} ; [ DW_TAG_subroutine_type ]
!620 = metadata !{metadata !440, metadata !435, metadata !72}
!621 = metadata !{i32 786478, i32 0, metadata !419, metadata !"operator--", metadata !"operator--", metadata !"_ZN11ap_int_baseILi8ELb0ELb1EEmmEi", metadata !56, i32 1855, metadata !619, i1 false, i1 false, i32 0, i32 0, null, i32 256, i1 false, null, null, i32 0, metadata !68, i32 1855} ; [ DW_TAG_subprogram ]
!622 = metadata !{i32 786478, i32 0, metadata !419, metadata !"operator+", metadata !"operator+", metadata !"_ZNK11ap_int_baseILi8ELb0ELb1EEpsEv", metadata !56, i32 1864, metadata !623, i1 false, i1 false, i32 0, i32 0, null, i32 256, i1 false, null, null, i32 0, metadata !68, i32 1864} ; [ DW_TAG_subprogram ]
!623 = metadata !{i32 786453, i32 0, metadata !"", i32 0, i32 0, i64 0, i64 0, i64 0, i32 0, null, metadata !624, i32 0, i32 0} ; [ DW_TAG_subroutine_type ]
!624 = metadata !{metadata !419, metadata !551}
!625 = metadata !{i32 786478, i32 0, metadata !419, metadata !"operator!", metadata !"operator!", metadata !"_ZNK11ap_int_baseILi8ELb0ELb1EEntEv", metadata !56, i32 1870, metadata !553, i1 false, i1 false, i32 0, i32 0, null, i32 256, i1 false, null, null, i32 0, metadata !68, i32 1870} ; [ DW_TAG_subprogram ]
!626 = metadata !{i32 786478, i32 0, metadata !419, metadata !"operator-", metadata !"operator-", metadata !"_ZNK11ap_int_baseILi8ELb0ELb1EEngEv", metadata !56, i32 1875, metadata !627, i1 false, i1 false, i32 0, i32 0, null, i32 256, i1 false, null, null, i32 0, metadata !68, i32 1875} ; [ DW_TAG_subprogram ]
!627 = metadata !{i32 786453, i32 0, metadata !"", i32 0, i32 0, i64 0, i64 0, i64 0, i32 0, null, metadata !628, i32 0, i32 0} ; [ DW_TAG_subroutine_type ]
!628 = metadata !{metadata !629, metadata !551}
!629 = metadata !{i32 786434, null, metadata !"ap_int_base<9, true, true>", metadata !56, i32 1397, i64 16, i64 16, i32 0, i32 0, null, metadata !630, i32 0, null, metadata !905} ; [ DW_TAG_class_type ]
!630 = metadata !{metadata !631, metadata !642, metadata !646, metadata !649, metadata !652, metadata !655, metadata !658, metadata !661, metadata !664, metadata !667, metadata !670, metadata !673, metadata !676, metadata !679, metadata !682, metadata !685, metadata !688, metadata !691, metadata !696, metadata !701, metadata !706, metadata !707, metadata !711, metadata !714, metadata !717, metadata !720, metadata !723, metadata !726, metadata !729, metadata !732, metadata !735, metadata !738, metadata !741, metadata !744, metadata !753, metadata !756, metadata !759, metadata !762, metadata !765, metadata !768, metadata !771, metadata !774, metadata !777, metadata !780, metadata !783, metadata !786, metadata !789, metadata !790, metadata !794, metadata !797, metadata !798, metadata !799, metadata !800, metadata !801, metadata !802, metadata !805, metadata !806, metadata !809, metadata !810, metadata !811, metadata !812, metadata !813, metadata !814, metadata !817, metadata !818, metadata !819, metadata !822, metadata !823, metadata !826, metadata !827, metadata !831, metadata !835, metadata !836, metadata !839, metadata !840, metadata !879, metadata !880, metadata !881, metadata !882, metadata !885, metadata !886, metadata !887, metadata !888, metadata !889, metadata !890, metadata !891, metadata !892, metadata !893, metadata !894, metadata !895, metadata !896, metadata !899, metadata !902}
!631 = metadata !{i32 786460, metadata !629, null, metadata !56, i32 0, i64 0, i64 0, i64 0, i32 0, metadata !632} ; [ DW_TAG_inheritance ]
!632 = metadata !{i32 786434, null, metadata !"ssdm_int<9 + 1024 * 0, true>", metadata !60, i32 11, i64 16, i64 16, i32 0, i32 0, null, metadata !633, i32 0, null, metadata !640} ; [ DW_TAG_class_type ]
!633 = metadata !{metadata !634, metadata !636}
!634 = metadata !{i32 786445, metadata !632, metadata !"V", metadata !60, i32 11, i64 9, i64 16, i64 0, i32 0, metadata !635} ; [ DW_TAG_member ]
!635 = metadata !{i32 786468, null, metadata !"int9", null, i32 0, i64 9, i64 16, i64 0, i32 0, i32 5} ; [ DW_TAG_base_type ]
!636 = metadata !{i32 786478, i32 0, metadata !632, metadata !"ssdm_int", metadata !"ssdm_int", metadata !"", metadata !60, i32 11, metadata !637, i1 false, i1 false, i32 0, i32 0, null, i32 256, i1 false, null, null, i32 0, metadata !68, i32 11} ; [ DW_TAG_subprogram ]
!637 = metadata !{i32 786453, i32 0, metadata !"", i32 0, i32 0, i64 0, i64 0, i64 0, i32 0, null, metadata !638, i32 0, i32 0} ; [ DW_TAG_subroutine_type ]
!638 = metadata !{null, metadata !639}
!639 = metadata !{i32 786447, i32 0, metadata !"", i32 0, i32 0, i64 64, i64 64, i64 0, i32 64, metadata !632} ; [ DW_TAG_pointer_type ]
!640 = metadata !{metadata !641, metadata !73}
!641 = metadata !{i32 786480, null, metadata !"_AP_N", metadata !72, i64 9, null, i32 0, i32 0} ; [ DW_TAG_template_value_parameter ]
!642 = metadata !{i32 786478, i32 0, metadata !629, metadata !"ap_int_base", metadata !"ap_int_base", metadata !"", metadata !56, i32 1438, metadata !643, i1 false, i1 false, i32 0, i32 0, null, i32 256, i1 false, null, null, i32 0, metadata !68, i32 1438} ; [ DW_TAG_subprogram ]
!643 = metadata !{i32 786453, i32 0, metadata !"", i32 0, i32 0, i64 0, i64 0, i64 0, i32 0, null, metadata !644, i32 0, i32 0} ; [ DW_TAG_subroutine_type ]
!644 = metadata !{null, metadata !645}
!645 = metadata !{i32 786447, i32 0, metadata !"", i32 0, i32 0, i64 64, i64 64, i64 0, i32 64, metadata !629} ; [ DW_TAG_pointer_type ]
!646 = metadata !{i32 786478, i32 0, metadata !629, metadata !"ap_int_base", metadata !"ap_int_base", metadata !"", metadata !56, i32 1460, metadata !647, i1 false, i1 false, i32 0, i32 0, null, i32 384, i1 false, null, null, i32 0, metadata !68, i32 1460} ; [ DW_TAG_subprogram ]
!647 = metadata !{i32 786453, i32 0, metadata !"", i32 0, i32 0, i64 0, i64 0, i64 0, i32 0, null, metadata !648, i32 0, i32 0} ; [ DW_TAG_subroutine_type ]
!648 = metadata !{null, metadata !645, metadata !74}
!649 = metadata !{i32 786478, i32 0, metadata !629, metadata !"ap_int_base", metadata !"ap_int_base", metadata !"", metadata !56, i32 1461, metadata !650, i1 false, i1 false, i32 0, i32 0, null, i32 384, i1 false, null, null, i32 0, metadata !68, i32 1461} ; [ DW_TAG_subprogram ]
!650 = metadata !{i32 786453, i32 0, metadata !"", i32 0, i32 0, i64 0, i64 0, i64 0, i32 0, null, metadata !651, i32 0, i32 0} ; [ DW_TAG_subroutine_type ]
!651 = metadata !{null, metadata !645, metadata !99}
!652 = metadata !{i32 786478, i32 0, metadata !629, metadata !"ap_int_base", metadata !"ap_int_base", metadata !"", metadata !56, i32 1462, metadata !653, i1 false, i1 false, i32 0, i32 0, null, i32 384, i1 false, null, null, i32 0, metadata !68, i32 1462} ; [ DW_TAG_subprogram ]
!653 = metadata !{i32 786453, i32 0, metadata !"", i32 0, i32 0, i64 0, i64 0, i64 0, i32 0, null, metadata !654, i32 0, i32 0} ; [ DW_TAG_subroutine_type ]
!654 = metadata !{null, metadata !645, metadata !103}
!655 = metadata !{i32 786478, i32 0, metadata !629, metadata !"ap_int_base", metadata !"ap_int_base", metadata !"", metadata !56, i32 1463, metadata !656, i1 false, i1 false, i32 0, i32 0, null, i32 384, i1 false, null, null, i32 0, metadata !68, i32 1463} ; [ DW_TAG_subprogram ]
!656 = metadata !{i32 786453, i32 0, metadata !"", i32 0, i32 0, i64 0, i64 0, i64 0, i32 0, null, metadata !657, i32 0, i32 0} ; [ DW_TAG_subroutine_type ]
!657 = metadata !{null, metadata !645, metadata !107}
!658 = metadata !{i32 786478, i32 0, metadata !629, metadata !"ap_int_base", metadata !"ap_int_base", metadata !"", metadata !56, i32 1464, metadata !659, i1 false, i1 false, i32 0, i32 0, null, i32 384, i1 false, null, null, i32 0, metadata !68, i32 1464} ; [ DW_TAG_subprogram ]
!659 = metadata !{i32 786453, i32 0, metadata !"", i32 0, i32 0, i64 0, i64 0, i64 0, i32 0, null, metadata !660, i32 0, i32 0} ; [ DW_TAG_subroutine_type ]
!660 = metadata !{null, metadata !645, metadata !111}
!661 = metadata !{i32 786478, i32 0, metadata !629, metadata !"ap_int_base", metadata !"ap_int_base", metadata !"", metadata !56, i32 1465, metadata !662, i1 false, i1 false, i32 0, i32 0, null, i32 384, i1 false, null, null, i32 0, metadata !68, i32 1465} ; [ DW_TAG_subprogram ]
!662 = metadata !{i32 786453, i32 0, metadata !"", i32 0, i32 0, i64 0, i64 0, i64 0, i32 0, null, metadata !663, i32 0, i32 0} ; [ DW_TAG_subroutine_type ]
!663 = metadata !{null, metadata !645, metadata !72}
!664 = metadata !{i32 786478, i32 0, metadata !629, metadata !"ap_int_base", metadata !"ap_int_base", metadata !"", metadata !56, i32 1466, metadata !665, i1 false, i1 false, i32 0, i32 0, null, i32 384, i1 false, null, null, i32 0, metadata !68, i32 1466} ; [ DW_TAG_subprogram ]
!665 = metadata !{i32 786453, i32 0, metadata !"", i32 0, i32 0, i64 0, i64 0, i64 0, i32 0, null, metadata !666, i32 0, i32 0} ; [ DW_TAG_subroutine_type ]
!666 = metadata !{null, metadata !645, metadata !118}
!667 = metadata !{i32 786478, i32 0, metadata !629, metadata !"ap_int_base", metadata !"ap_int_base", metadata !"", metadata !56, i32 1467, metadata !668, i1 false, i1 false, i32 0, i32 0, null, i32 384, i1 false, null, null, i32 0, metadata !68, i32 1467} ; [ DW_TAG_subprogram ]
!668 = metadata !{i32 786453, i32 0, metadata !"", i32 0, i32 0, i64 0, i64 0, i64 0, i32 0, null, metadata !669, i32 0, i32 0} ; [ DW_TAG_subroutine_type ]
!669 = metadata !{null, metadata !645, metadata !122}
!670 = metadata !{i32 786478, i32 0, metadata !629, metadata !"ap_int_base", metadata !"ap_int_base", metadata !"", metadata !56, i32 1468, metadata !671, i1 false, i1 false, i32 0, i32 0, null, i32 384, i1 false, null, null, i32 0, metadata !68, i32 1468} ; [ DW_TAG_subprogram ]
!671 = metadata !{i32 786453, i32 0, metadata !"", i32 0, i32 0, i64 0, i64 0, i64 0, i32 0, null, metadata !672, i32 0, i32 0} ; [ DW_TAG_subroutine_type ]
!672 = metadata !{null, metadata !645, metadata !126}
!673 = metadata !{i32 786478, i32 0, metadata !629, metadata !"ap_int_base", metadata !"ap_int_base", metadata !"", metadata !56, i32 1469, metadata !674, i1 false, i1 false, i32 0, i32 0, null, i32 384, i1 false, null, null, i32 0, metadata !68, i32 1469} ; [ DW_TAG_subprogram ]
!674 = metadata !{i32 786453, i32 0, metadata !"", i32 0, i32 0, i64 0, i64 0, i64 0, i32 0, null, metadata !675, i32 0, i32 0} ; [ DW_TAG_subroutine_type ]
!675 = metadata !{null, metadata !645, metadata !130}
!676 = metadata !{i32 786478, i32 0, metadata !629, metadata !"ap_int_base", metadata !"ap_int_base", metadata !"", metadata !56, i32 1470, metadata !677, i1 false, i1 false, i32 0, i32 0, null, i32 384, i1 false, null, null, i32 0, metadata !68, i32 1470} ; [ DW_TAG_subprogram ]
!677 = metadata !{i32 786453, i32 0, metadata !"", i32 0, i32 0, i64 0, i64 0, i64 0, i32 0, null, metadata !678, i32 0, i32 0} ; [ DW_TAG_subroutine_type ]
!678 = metadata !{null, metadata !645, metadata !135}
!679 = metadata !{i32 786478, i32 0, metadata !629, metadata !"ap_int_base", metadata !"ap_int_base", metadata !"", metadata !56, i32 1471, metadata !680, i1 false, i1 false, i32 0, i32 0, null, i32 384, i1 false, null, null, i32 0, metadata !68, i32 1471} ; [ DW_TAG_subprogram ]
!680 = metadata !{i32 786453, i32 0, metadata !"", i32 0, i32 0, i64 0, i64 0, i64 0, i32 0, null, metadata !681, i32 0, i32 0} ; [ DW_TAG_subroutine_type ]
!681 = metadata !{null, metadata !645, metadata !140}
!682 = metadata !{i32 786478, i32 0, metadata !629, metadata !"ap_int_base", metadata !"ap_int_base", metadata !"", metadata !56, i32 1472, metadata !683, i1 false, i1 false, i32 0, i32 0, null, i32 384, i1 false, null, null, i32 0, metadata !68, i32 1472} ; [ DW_TAG_subprogram ]
!683 = metadata !{i32 786453, i32 0, metadata !"", i32 0, i32 0, i64 0, i64 0, i64 0, i32 0, null, metadata !684, i32 0, i32 0} ; [ DW_TAG_subroutine_type ]
!684 = metadata !{null, metadata !645, metadata !144}
!685 = metadata !{i32 786478, i32 0, metadata !629, metadata !"ap_int_base", metadata !"ap_int_base", metadata !"", metadata !56, i32 1499, metadata !686, i1 false, i1 false, i32 0, i32 0, null, i32 256, i1 false, null, null, i32 0, metadata !68, i32 1499} ; [ DW_TAG_subprogram ]
!686 = metadata !{i32 786453, i32 0, metadata !"", i32 0, i32 0, i64 0, i64 0, i64 0, i32 0, null, metadata !687, i32 0, i32 0} ; [ DW_TAG_subroutine_type ]
!687 = metadata !{null, metadata !645, metadata !148}
!688 = metadata !{i32 786478, i32 0, metadata !629, metadata !"ap_int_base", metadata !"ap_int_base", metadata !"", metadata !56, i32 1506, metadata !689, i1 false, i1 false, i32 0, i32 0, null, i32 256, i1 false, null, null, i32 0, metadata !68, i32 1506} ; [ DW_TAG_subprogram ]
!689 = metadata !{i32 786453, i32 0, metadata !"", i32 0, i32 0, i64 0, i64 0, i64 0, i32 0, null, metadata !690, i32 0, i32 0} ; [ DW_TAG_subroutine_type ]
!690 = metadata !{null, metadata !645, metadata !148, metadata !99}
!691 = metadata !{i32 786478, i32 0, metadata !629, metadata !"read", metadata !"read", metadata !"_ZNV11ap_int_baseILi9ELb1ELb1EE4readEv", metadata !56, i32 1527, metadata !692, i1 false, i1 false, i32 0, i32 0, null, i32 256, i1 false, null, null, i32 0, metadata !68, i32 1527} ; [ DW_TAG_subprogram ]
!692 = metadata !{i32 786453, i32 0, metadata !"", i32 0, i32 0, i64 0, i64 0, i64 0, i32 0, null, metadata !693, i32 0, i32 0} ; [ DW_TAG_subroutine_type ]
!693 = metadata !{metadata !629, metadata !694}
!694 = metadata !{i32 786447, i32 0, metadata !"", i32 0, i32 0, i64 64, i64 64, i64 0, i32 64, metadata !695} ; [ DW_TAG_pointer_type ]
!695 = metadata !{i32 786485, null, metadata !"", null, i32 0, i64 0, i64 0, i64 0, i32 0, metadata !629} ; [ DW_TAG_volatile_type ]
!696 = metadata !{i32 786478, i32 0, metadata !629, metadata !"write", metadata !"write", metadata !"_ZNV11ap_int_baseILi9ELb1ELb1EE5writeERKS0_", metadata !56, i32 1533, metadata !697, i1 false, i1 false, i32 0, i32 0, null, i32 256, i1 false, null, null, i32 0, metadata !68, i32 1533} ; [ DW_TAG_subprogram ]
!697 = metadata !{i32 786453, i32 0, metadata !"", i32 0, i32 0, i64 0, i64 0, i64 0, i32 0, null, metadata !698, i32 0, i32 0} ; [ DW_TAG_subroutine_type ]
!698 = metadata !{null, metadata !694, metadata !699}
!699 = metadata !{i32 786448, null, null, null, i32 0, i64 0, i64 0, i64 0, i32 0, metadata !700} ; [ DW_TAG_reference_type ]
!700 = metadata !{i32 786470, null, metadata !"", null, i32 0, i64 0, i64 0, i64 0, i32 0, metadata !629} ; [ DW_TAG_const_type ]
!701 = metadata !{i32 786478, i32 0, metadata !629, metadata !"operator=", metadata !"operator=", metadata !"_ZNV11ap_int_baseILi9ELb1ELb1EEaSERVKS0_", metadata !56, i32 1545, metadata !702, i1 false, i1 false, i32 0, i32 0, null, i32 256, i1 false, null, null, i32 0, metadata !68, i32 1545} ; [ DW_TAG_subprogram ]
!702 = metadata !{i32 786453, i32 0, metadata !"", i32 0, i32 0, i64 0, i64 0, i64 0, i32 0, null, metadata !703, i32 0, i32 0} ; [ DW_TAG_subroutine_type ]
!703 = metadata !{null, metadata !694, metadata !704}
!704 = metadata !{i32 786448, null, null, null, i32 0, i64 0, i64 0, i64 0, i32 0, metadata !705} ; [ DW_TAG_reference_type ]
!705 = metadata !{i32 786470, null, metadata !"", null, i32 0, i64 0, i64 0, i64 0, i32 0, metadata !695} ; [ DW_TAG_const_type ]
!706 = metadata !{i32 786478, i32 0, metadata !629, metadata !"operator=", metadata !"operator=", metadata !"_ZNV11ap_int_baseILi9ELb1ELb1EEaSERKS0_", metadata !56, i32 1554, metadata !697, i1 false, i1 false, i32 0, i32 0, null, i32 256, i1 false, null, null, i32 0, metadata !68, i32 1554} ; [ DW_TAG_subprogram ]
!707 = metadata !{i32 786478, i32 0, metadata !629, metadata !"operator=", metadata !"operator=", metadata !"_ZN11ap_int_baseILi9ELb1ELb1EEaSERVKS0_", metadata !56, i32 1577, metadata !708, i1 false, i1 false, i32 0, i32 0, null, i32 256, i1 false, null, null, i32 0, metadata !68, i32 1577} ; [ DW_TAG_subprogram ]
!708 = metadata !{i32 786453, i32 0, metadata !"", i32 0, i32 0, i64 0, i64 0, i64 0, i32 0, null, metadata !709, i32 0, i32 0} ; [ DW_TAG_subroutine_type ]
!709 = metadata !{metadata !710, metadata !645, metadata !704}
!710 = metadata !{i32 786448, null, null, null, i32 0, i64 0, i64 0, i64 0, i32 0, metadata !629} ; [ DW_TAG_reference_type ]
!711 = metadata !{i32 786478, i32 0, metadata !629, metadata !"operator=", metadata !"operator=", metadata !"_ZN11ap_int_baseILi9ELb1ELb1EEaSERKS0_", metadata !56, i32 1582, metadata !712, i1 false, i1 false, i32 0, i32 0, null, i32 256, i1 false, null, null, i32 0, metadata !68, i32 1582} ; [ DW_TAG_subprogram ]
!712 = metadata !{i32 786453, i32 0, metadata !"", i32 0, i32 0, i64 0, i64 0, i64 0, i32 0, null, metadata !713, i32 0, i32 0} ; [ DW_TAG_subroutine_type ]
!713 = metadata !{metadata !710, metadata !645, metadata !699}
!714 = metadata !{i32 786478, i32 0, metadata !629, metadata !"operator=", metadata !"operator=", metadata !"_ZN11ap_int_baseILi9ELb1ELb1EEaSEPKc", metadata !56, i32 1586, metadata !715, i1 false, i1 false, i32 0, i32 0, null, i32 256, i1 false, null, null, i32 0, metadata !68, i32 1586} ; [ DW_TAG_subprogram ]
!715 = metadata !{i32 786453, i32 0, metadata !"", i32 0, i32 0, i64 0, i64 0, i64 0, i32 0, null, metadata !716, i32 0, i32 0} ; [ DW_TAG_subroutine_type ]
!716 = metadata !{metadata !710, metadata !645, metadata !148}
!717 = metadata !{i32 786478, i32 0, metadata !629, metadata !"set", metadata !"set", metadata !"_ZN11ap_int_baseILi9ELb1ELb1EE3setEPKca", metadata !56, i32 1594, metadata !718, i1 false, i1 false, i32 0, i32 0, null, i32 256, i1 false, null, null, i32 0, metadata !68, i32 1594} ; [ DW_TAG_subprogram ]
!718 = metadata !{i32 786453, i32 0, metadata !"", i32 0, i32 0, i64 0, i64 0, i64 0, i32 0, null, metadata !719, i32 0, i32 0} ; [ DW_TAG_subroutine_type ]
!719 = metadata !{metadata !710, metadata !645, metadata !148, metadata !99}
!720 = metadata !{i32 786478, i32 0, metadata !629, metadata !"operator=", metadata !"operator=", metadata !"_ZN11ap_int_baseILi9ELb1ELb1EEaSEa", metadata !56, i32 1608, metadata !721, i1 false, i1 false, i32 0, i32 0, null, i32 256, i1 false, null, null, i32 0, metadata !68, i32 1608} ; [ DW_TAG_subprogram ]
!721 = metadata !{i32 786453, i32 0, metadata !"", i32 0, i32 0, i64 0, i64 0, i64 0, i32 0, null, metadata !722, i32 0, i32 0} ; [ DW_TAG_subroutine_type ]
!722 = metadata !{metadata !710, metadata !645, metadata !99}
!723 = metadata !{i32 786478, i32 0, metadata !629, metadata !"operator=", metadata !"operator=", metadata !"_ZN11ap_int_baseILi9ELb1ELb1EEaSEh", metadata !56, i32 1609, metadata !724, i1 false, i1 false, i32 0, i32 0, null, i32 256, i1 false, null, null, i32 0, metadata !68, i32 1609} ; [ DW_TAG_subprogram ]
!724 = metadata !{i32 786453, i32 0, metadata !"", i32 0, i32 0, i64 0, i64 0, i64 0, i32 0, null, metadata !725, i32 0, i32 0} ; [ DW_TAG_subroutine_type ]
!725 = metadata !{metadata !710, metadata !645, metadata !103}
!726 = metadata !{i32 786478, i32 0, metadata !629, metadata !"operator=", metadata !"operator=", metadata !"_ZN11ap_int_baseILi9ELb1ELb1EEaSEs", metadata !56, i32 1610, metadata !727, i1 false, i1 false, i32 0, i32 0, null, i32 256, i1 false, null, null, i32 0, metadata !68, i32 1610} ; [ DW_TAG_subprogram ]
!727 = metadata !{i32 786453, i32 0, metadata !"", i32 0, i32 0, i64 0, i64 0, i64 0, i32 0, null, metadata !728, i32 0, i32 0} ; [ DW_TAG_subroutine_type ]
!728 = metadata !{metadata !710, metadata !645, metadata !107}
!729 = metadata !{i32 786478, i32 0, metadata !629, metadata !"operator=", metadata !"operator=", metadata !"_ZN11ap_int_baseILi9ELb1ELb1EEaSEt", metadata !56, i32 1611, metadata !730, i1 false, i1 false, i32 0, i32 0, null, i32 256, i1 false, null, null, i32 0, metadata !68, i32 1611} ; [ DW_TAG_subprogram ]
!730 = metadata !{i32 786453, i32 0, metadata !"", i32 0, i32 0, i64 0, i64 0, i64 0, i32 0, null, metadata !731, i32 0, i32 0} ; [ DW_TAG_subroutine_type ]
!731 = metadata !{metadata !710, metadata !645, metadata !111}
!732 = metadata !{i32 786478, i32 0, metadata !629, metadata !"operator=", metadata !"operator=", metadata !"_ZN11ap_int_baseILi9ELb1ELb1EEaSEi", metadata !56, i32 1612, metadata !733, i1 false, i1 false, i32 0, i32 0, null, i32 256, i1 false, null, null, i32 0, metadata !68, i32 1612} ; [ DW_TAG_subprogram ]
!733 = metadata !{i32 786453, i32 0, metadata !"", i32 0, i32 0, i64 0, i64 0, i64 0, i32 0, null, metadata !734, i32 0, i32 0} ; [ DW_TAG_subroutine_type ]
!734 = metadata !{metadata !710, metadata !645, metadata !72}
!735 = metadata !{i32 786478, i32 0, metadata !629, metadata !"operator=", metadata !"operator=", metadata !"_ZN11ap_int_baseILi9ELb1ELb1EEaSEj", metadata !56, i32 1613, metadata !736, i1 false, i1 false, i32 0, i32 0, null, i32 256, i1 false, null, null, i32 0, metadata !68, i32 1613} ; [ DW_TAG_subprogram ]
!736 = metadata !{i32 786453, i32 0, metadata !"", i32 0, i32 0, i64 0, i64 0, i64 0, i32 0, null, metadata !737, i32 0, i32 0} ; [ DW_TAG_subroutine_type ]
!737 = metadata !{metadata !710, metadata !645, metadata !118}
!738 = metadata !{i32 786478, i32 0, metadata !629, metadata !"operator=", metadata !"operator=", metadata !"_ZN11ap_int_baseILi9ELb1ELb1EEaSEx", metadata !56, i32 1614, metadata !739, i1 false, i1 false, i32 0, i32 0, null, i32 256, i1 false, null, null, i32 0, metadata !68, i32 1614} ; [ DW_TAG_subprogram ]
!739 = metadata !{i32 786453, i32 0, metadata !"", i32 0, i32 0, i64 0, i64 0, i64 0, i32 0, null, metadata !740, i32 0, i32 0} ; [ DW_TAG_subroutine_type ]
!740 = metadata !{metadata !710, metadata !645, metadata !130}
!741 = metadata !{i32 786478, i32 0, metadata !629, metadata !"operator=", metadata !"operator=", metadata !"_ZN11ap_int_baseILi9ELb1ELb1EEaSEy", metadata !56, i32 1615, metadata !742, i1 false, i1 false, i32 0, i32 0, null, i32 256, i1 false, null, null, i32 0, metadata !68, i32 1615} ; [ DW_TAG_subprogram ]
!742 = metadata !{i32 786453, i32 0, metadata !"", i32 0, i32 0, i64 0, i64 0, i64 0, i32 0, null, metadata !743, i32 0, i32 0} ; [ DW_TAG_subroutine_type ]
!743 = metadata !{metadata !710, metadata !645, metadata !135}
!744 = metadata !{i32 786478, i32 0, metadata !629, metadata !"operator short", metadata !"operator short", metadata !"_ZNK11ap_int_baseILi9ELb1ELb1EEcvsEv", metadata !56, i32 1653, metadata !745, i1 false, i1 false, i32 0, i32 0, null, i32 256, i1 false, null, null, i32 0, metadata !68, i32 1653} ; [ DW_TAG_subprogram ]
!745 = metadata !{i32 786453, i32 0, metadata !"", i32 0, i32 0, i64 0, i64 0, i64 0, i32 0, null, metadata !746, i32 0, i32 0} ; [ DW_TAG_subroutine_type ]
!746 = metadata !{metadata !747, metadata !752}
!747 = metadata !{i32 786454, metadata !629, metadata !"RetType", metadata !56, i32 1402, i64 0, i64 0, i64 0, i32 0, metadata !748} ; [ DW_TAG_typedef ]
!748 = metadata !{i32 786454, metadata !749, metadata !"Type", metadata !56, i32 1373, i64 0, i64 0, i64 0, i32 0, metadata !107} ; [ DW_TAG_typedef ]
!749 = metadata !{i32 786434, null, metadata !"retval<2, true>", metadata !56, i32 1372, i64 8, i64 8, i32 0, i32 0, null, metadata !208, i32 0, null, metadata !750} ; [ DW_TAG_class_type ]
!750 = metadata !{metadata !751, metadata !73}
!751 = metadata !{i32 786480, null, metadata !"_AP_N", metadata !72, i64 2, null, i32 0, i32 0} ; [ DW_TAG_template_value_parameter ]
!752 = metadata !{i32 786447, i32 0, metadata !"", i32 0, i32 0, i64 64, i64 64, i64 0, i32 64, metadata !700} ; [ DW_TAG_pointer_type ]
!753 = metadata !{i32 786478, i32 0, metadata !629, metadata !"to_bool", metadata !"to_bool", metadata !"_ZNK11ap_int_baseILi9ELb1ELb1EE7to_boolEv", metadata !56, i32 1659, metadata !754, i1 false, i1 false, i32 0, i32 0, null, i32 256, i1 false, null, null, i32 0, metadata !68, i32 1659} ; [ DW_TAG_subprogram ]
!754 = metadata !{i32 786453, i32 0, metadata !"", i32 0, i32 0, i64 0, i64 0, i64 0, i32 0, null, metadata !755, i32 0, i32 0} ; [ DW_TAG_subroutine_type ]
!755 = metadata !{metadata !74, metadata !752}
!756 = metadata !{i32 786478, i32 0, metadata !629, metadata !"to_uchar", metadata !"to_uchar", metadata !"_ZNK11ap_int_baseILi9ELb1ELb1EE8to_ucharEv", metadata !56, i32 1660, metadata !757, i1 false, i1 false, i32 0, i32 0, null, i32 256, i1 false, null, null, i32 0, metadata !68, i32 1660} ; [ DW_TAG_subprogram ]
!757 = metadata !{i32 786453, i32 0, metadata !"", i32 0, i32 0, i64 0, i64 0, i64 0, i32 0, null, metadata !758, i32 0, i32 0} ; [ DW_TAG_subroutine_type ]
!758 = metadata !{metadata !103, metadata !752}
!759 = metadata !{i32 786478, i32 0, metadata !629, metadata !"to_char", metadata !"to_char", metadata !"_ZNK11ap_int_baseILi9ELb1ELb1EE7to_charEv", metadata !56, i32 1661, metadata !760, i1 false, i1 false, i32 0, i32 0, null, i32 256, i1 false, null, null, i32 0, metadata !68, i32 1661} ; [ DW_TAG_subprogram ]
!760 = metadata !{i32 786453, i32 0, metadata !"", i32 0, i32 0, i64 0, i64 0, i64 0, i32 0, null, metadata !761, i32 0, i32 0} ; [ DW_TAG_subroutine_type ]
!761 = metadata !{metadata !99, metadata !752}
!762 = metadata !{i32 786478, i32 0, metadata !629, metadata !"to_ushort", metadata !"to_ushort", metadata !"_ZNK11ap_int_baseILi9ELb1ELb1EE9to_ushortEv", metadata !56, i32 1662, metadata !763, i1 false, i1 false, i32 0, i32 0, null, i32 256, i1 false, null, null, i32 0, metadata !68, i32 1662} ; [ DW_TAG_subprogram ]
!763 = metadata !{i32 786453, i32 0, metadata !"", i32 0, i32 0, i64 0, i64 0, i64 0, i32 0, null, metadata !764, i32 0, i32 0} ; [ DW_TAG_subroutine_type ]
!764 = metadata !{metadata !111, metadata !752}
!765 = metadata !{i32 786478, i32 0, metadata !629, metadata !"to_short", metadata !"to_short", metadata !"_ZNK11ap_int_baseILi9ELb1ELb1EE8to_shortEv", metadata !56, i32 1663, metadata !766, i1 false, i1 false, i32 0, i32 0, null, i32 256, i1 false, null, null, i32 0, metadata !68, i32 1663} ; [ DW_TAG_subprogram ]
!766 = metadata !{i32 786453, i32 0, metadata !"", i32 0, i32 0, i64 0, i64 0, i64 0, i32 0, null, metadata !767, i32 0, i32 0} ; [ DW_TAG_subroutine_type ]
!767 = metadata !{metadata !107, metadata !752}
!768 = metadata !{i32 786478, i32 0, metadata !629, metadata !"to_int", metadata !"to_int", metadata !"_ZNK11ap_int_baseILi9ELb1ELb1EE6to_intEv", metadata !56, i32 1664, metadata !769, i1 false, i1 false, i32 0, i32 0, null, i32 256, i1 false, null, null, i32 0, metadata !68, i32 1664} ; [ DW_TAG_subprogram ]
!769 = metadata !{i32 786453, i32 0, metadata !"", i32 0, i32 0, i64 0, i64 0, i64 0, i32 0, null, metadata !770, i32 0, i32 0} ; [ DW_TAG_subroutine_type ]
!770 = metadata !{metadata !72, metadata !752}
!771 = metadata !{i32 786478, i32 0, metadata !629, metadata !"to_uint", metadata !"to_uint", metadata !"_ZNK11ap_int_baseILi9ELb1ELb1EE7to_uintEv", metadata !56, i32 1665, metadata !772, i1 false, i1 false, i32 0, i32 0, null, i32 256, i1 false, null, null, i32 0, metadata !68, i32 1665} ; [ DW_TAG_subprogram ]
!772 = metadata !{i32 786453, i32 0, metadata !"", i32 0, i32 0, i64 0, i64 0, i64 0, i32 0, null, metadata !773, i32 0, i32 0} ; [ DW_TAG_subroutine_type ]
!773 = metadata !{metadata !118, metadata !752}
!774 = metadata !{i32 786478, i32 0, metadata !629, metadata !"to_long", metadata !"to_long", metadata !"_ZNK11ap_int_baseILi9ELb1ELb1EE7to_longEv", metadata !56, i32 1666, metadata !775, i1 false, i1 false, i32 0, i32 0, null, i32 256, i1 false, null, null, i32 0, metadata !68, i32 1666} ; [ DW_TAG_subprogram ]
!775 = metadata !{i32 786453, i32 0, metadata !"", i32 0, i32 0, i64 0, i64 0, i64 0, i32 0, null, metadata !776, i32 0, i32 0} ; [ DW_TAG_subroutine_type ]
!776 = metadata !{metadata !122, metadata !752}
!777 = metadata !{i32 786478, i32 0, metadata !629, metadata !"to_ulong", metadata !"to_ulong", metadata !"_ZNK11ap_int_baseILi9ELb1ELb1EE8to_ulongEv", metadata !56, i32 1667, metadata !778, i1 false, i1 false, i32 0, i32 0, null, i32 256, i1 false, null, null, i32 0, metadata !68, i32 1667} ; [ DW_TAG_subprogram ]
!778 = metadata !{i32 786453, i32 0, metadata !"", i32 0, i32 0, i64 0, i64 0, i64 0, i32 0, null, metadata !779, i32 0, i32 0} ; [ DW_TAG_subroutine_type ]
!779 = metadata !{metadata !126, metadata !752}
!780 = metadata !{i32 786478, i32 0, metadata !629, metadata !"to_int64", metadata !"to_int64", metadata !"_ZNK11ap_int_baseILi9ELb1ELb1EE8to_int64Ev", metadata !56, i32 1668, metadata !781, i1 false, i1 false, i32 0, i32 0, null, i32 256, i1 false, null, null, i32 0, metadata !68, i32 1668} ; [ DW_TAG_subprogram ]
!781 = metadata !{i32 786453, i32 0, metadata !"", i32 0, i32 0, i64 0, i64 0, i64 0, i32 0, null, metadata !782, i32 0, i32 0} ; [ DW_TAG_subroutine_type ]
!782 = metadata !{metadata !130, metadata !752}
!783 = metadata !{i32 786478, i32 0, metadata !629, metadata !"to_uint64", metadata !"to_uint64", metadata !"_ZNK11ap_int_baseILi9ELb1ELb1EE9to_uint64Ev", metadata !56, i32 1669, metadata !784, i1 false, i1 false, i32 0, i32 0, null, i32 256, i1 false, null, null, i32 0, metadata !68, i32 1669} ; [ DW_TAG_subprogram ]
!784 = metadata !{i32 786453, i32 0, metadata !"", i32 0, i32 0, i64 0, i64 0, i64 0, i32 0, null, metadata !785, i32 0, i32 0} ; [ DW_TAG_subroutine_type ]
!785 = metadata !{metadata !135, metadata !752}
!786 = metadata !{i32 786478, i32 0, metadata !629, metadata !"to_double", metadata !"to_double", metadata !"_ZNK11ap_int_baseILi9ELb1ELb1EE9to_doubleEv", metadata !56, i32 1670, metadata !787, i1 false, i1 false, i32 0, i32 0, null, i32 256, i1 false, null, null, i32 0, metadata !68, i32 1670} ; [ DW_TAG_subprogram ]
!787 = metadata !{i32 786453, i32 0, metadata !"", i32 0, i32 0, i64 0, i64 0, i64 0, i32 0, null, metadata !788, i32 0, i32 0} ; [ DW_TAG_subroutine_type ]
!788 = metadata !{metadata !144, metadata !752}
!789 = metadata !{i32 786478, i32 0, metadata !629, metadata !"length", metadata !"length", metadata !"_ZNK11ap_int_baseILi9ELb1ELb1EE6lengthEv", metadata !56, i32 1684, metadata !769, i1 false, i1 false, i32 0, i32 0, null, i32 256, i1 false, null, null, i32 0, metadata !68, i32 1684} ; [ DW_TAG_subprogram ]
!790 = metadata !{i32 786478, i32 0, metadata !629, metadata !"length", metadata !"length", metadata !"_ZNVK11ap_int_baseILi9ELb1ELb1EE6lengthEv", metadata !56, i32 1685, metadata !791, i1 false, i1 false, i32 0, i32 0, null, i32 256, i1 false, null, null, i32 0, metadata !68, i32 1685} ; [ DW_TAG_subprogram ]
!791 = metadata !{i32 786453, i32 0, metadata !"", i32 0, i32 0, i64 0, i64 0, i64 0, i32 0, null, metadata !792, i32 0, i32 0} ; [ DW_TAG_subroutine_type ]
!792 = metadata !{metadata !72, metadata !793}
!793 = metadata !{i32 786447, i32 0, metadata !"", i32 0, i32 0, i64 64, i64 64, i64 0, i32 64, metadata !705} ; [ DW_TAG_pointer_type ]
!794 = metadata !{i32 786478, i32 0, metadata !629, metadata !"reverse", metadata !"reverse", metadata !"_ZN11ap_int_baseILi9ELb1ELb1EE7reverseEv", metadata !56, i32 1690, metadata !795, i1 false, i1 false, i32 0, i32 0, null, i32 256, i1 false, null, null, i32 0, metadata !68, i32 1690} ; [ DW_TAG_subprogram ]
!795 = metadata !{i32 786453, i32 0, metadata !"", i32 0, i32 0, i64 0, i64 0, i64 0, i32 0, null, metadata !796, i32 0, i32 0} ; [ DW_TAG_subroutine_type ]
!796 = metadata !{metadata !710, metadata !645}
!797 = metadata !{i32 786478, i32 0, metadata !629, metadata !"iszero", metadata !"iszero", metadata !"_ZNK11ap_int_baseILi9ELb1ELb1EE6iszeroEv", metadata !56, i32 1696, metadata !754, i1 false, i1 false, i32 0, i32 0, null, i32 256, i1 false, null, null, i32 0, metadata !68, i32 1696} ; [ DW_TAG_subprogram ]
!798 = metadata !{i32 786478, i32 0, metadata !629, metadata !"is_zero", metadata !"is_zero", metadata !"_ZNK11ap_int_baseILi9ELb1ELb1EE7is_zeroEv", metadata !56, i32 1701, metadata !754, i1 false, i1 false, i32 0, i32 0, null, i32 256, i1 false, null, null, i32 0, metadata !68, i32 1701} ; [ DW_TAG_subprogram ]
!799 = metadata !{i32 786478, i32 0, metadata !629, metadata !"sign", metadata !"sign", metadata !"_ZNK11ap_int_baseILi9ELb1ELb1EE4signEv", metadata !56, i32 1706, metadata !754, i1 false, i1 false, i32 0, i32 0, null, i32 256, i1 false, null, null, i32 0, metadata !68, i32 1706} ; [ DW_TAG_subprogram ]
!800 = metadata !{i32 786478, i32 0, metadata !629, metadata !"clear", metadata !"clear", metadata !"_ZN11ap_int_baseILi9ELb1ELb1EE5clearEi", metadata !56, i32 1714, metadata !662, i1 false, i1 false, i32 0, i32 0, null, i32 256, i1 false, null, null, i32 0, metadata !68, i32 1714} ; [ DW_TAG_subprogram ]
!801 = metadata !{i32 786478, i32 0, metadata !629, metadata !"invert", metadata !"invert", metadata !"_ZN11ap_int_baseILi9ELb1ELb1EE6invertEi", metadata !56, i32 1720, metadata !662, i1 false, i1 false, i32 0, i32 0, null, i32 256, i1 false, null, null, i32 0, metadata !68, i32 1720} ; [ DW_TAG_subprogram ]
!802 = metadata !{i32 786478, i32 0, metadata !629, metadata !"test", metadata !"test", metadata !"_ZNK11ap_int_baseILi9ELb1ELb1EE4testEi", metadata !56, i32 1728, metadata !803, i1 false, i1 false, i32 0, i32 0, null, i32 256, i1 false, null, null, i32 0, metadata !68, i32 1728} ; [ DW_TAG_subprogram ]
!803 = metadata !{i32 786453, i32 0, metadata !"", i32 0, i32 0, i64 0, i64 0, i64 0, i32 0, null, metadata !804, i32 0, i32 0} ; [ DW_TAG_subroutine_type ]
!804 = metadata !{metadata !74, metadata !752, metadata !72}
!805 = metadata !{i32 786478, i32 0, metadata !629, metadata !"set", metadata !"set", metadata !"_ZN11ap_int_baseILi9ELb1ELb1EE3setEi", metadata !56, i32 1734, metadata !662, i1 false, i1 false, i32 0, i32 0, null, i32 256, i1 false, null, null, i32 0, metadata !68, i32 1734} ; [ DW_TAG_subprogram ]
!806 = metadata !{i32 786478, i32 0, metadata !629, metadata !"set", metadata !"set", metadata !"_ZN11ap_int_baseILi9ELb1ELb1EE3setEib", metadata !56, i32 1740, metadata !807, i1 false, i1 false, i32 0, i32 0, null, i32 256, i1 false, null, null, i32 0, metadata !68, i32 1740} ; [ DW_TAG_subprogram ]
!807 = metadata !{i32 786453, i32 0, metadata !"", i32 0, i32 0, i64 0, i64 0, i64 0, i32 0, null, metadata !808, i32 0, i32 0} ; [ DW_TAG_subroutine_type ]
!808 = metadata !{null, metadata !645, metadata !72, metadata !74}
!809 = metadata !{i32 786478, i32 0, metadata !629, metadata !"lrotate", metadata !"lrotate", metadata !"_ZN11ap_int_baseILi9ELb1ELb1EE7lrotateEi", metadata !56, i32 1747, metadata !662, i1 false, i1 false, i32 0, i32 0, null, i32 256, i1 false, null, null, i32 0, metadata !68, i32 1747} ; [ DW_TAG_subprogram ]
!810 = metadata !{i32 786478, i32 0, metadata !629, metadata !"rrotate", metadata !"rrotate", metadata !"_ZN11ap_int_baseILi9ELb1ELb1EE7rrotateEi", metadata !56, i32 1756, metadata !662, i1 false, i1 false, i32 0, i32 0, null, i32 256, i1 false, null, null, i32 0, metadata !68, i32 1756} ; [ DW_TAG_subprogram ]
!811 = metadata !{i32 786478, i32 0, metadata !629, metadata !"set_bit", metadata !"set_bit", metadata !"_ZN11ap_int_baseILi9ELb1ELb1EE7set_bitEib", metadata !56, i32 1764, metadata !807, i1 false, i1 false, i32 0, i32 0, null, i32 256, i1 false, null, null, i32 0, metadata !68, i32 1764} ; [ DW_TAG_subprogram ]
!812 = metadata !{i32 786478, i32 0, metadata !629, metadata !"get_bit", metadata !"get_bit", metadata !"_ZNK11ap_int_baseILi9ELb1ELb1EE7get_bitEi", metadata !56, i32 1769, metadata !803, i1 false, i1 false, i32 0, i32 0, null, i32 256, i1 false, null, null, i32 0, metadata !68, i32 1769} ; [ DW_TAG_subprogram ]
!813 = metadata !{i32 786478, i32 0, metadata !629, metadata !"b_not", metadata !"b_not", metadata !"_ZN11ap_int_baseILi9ELb1ELb1EE5b_notEv", metadata !56, i32 1774, metadata !643, i1 false, i1 false, i32 0, i32 0, null, i32 256, i1 false, null, null, i32 0, metadata !68, i32 1774} ; [ DW_TAG_subprogram ]
!814 = metadata !{i32 786478, i32 0, metadata !629, metadata !"countLeadingZeros", metadata !"countLeadingZeros", metadata !"_ZN11ap_int_baseILi9ELb1ELb1EE17countLeadingZerosEv", metadata !56, i32 1781, metadata !815, i1 false, i1 false, i32 0, i32 0, null, i32 256, i1 false, null, null, i32 0, metadata !68, i32 1781} ; [ DW_TAG_subprogram ]
!815 = metadata !{i32 786453, i32 0, metadata !"", i32 0, i32 0, i64 0, i64 0, i64 0, i32 0, null, metadata !816, i32 0, i32 0} ; [ DW_TAG_subroutine_type ]
!816 = metadata !{metadata !72, metadata !645}
!817 = metadata !{i32 786478, i32 0, metadata !629, metadata !"operator++", metadata !"operator++", metadata !"_ZN11ap_int_baseILi9ELb1ELb1EEppEv", metadata !56, i32 1838, metadata !795, i1 false, i1 false, i32 0, i32 0, null, i32 256, i1 false, null, null, i32 0, metadata !68, i32 1838} ; [ DW_TAG_subprogram ]
!818 = metadata !{i32 786478, i32 0, metadata !629, metadata !"operator--", metadata !"operator--", metadata !"_ZN11ap_int_baseILi9ELb1ELb1EEmmEv", metadata !56, i32 1842, metadata !795, i1 false, i1 false, i32 0, i32 0, null, i32 256, i1 false, null, null, i32 0, metadata !68, i32 1842} ; [ DW_TAG_subprogram ]
!819 = metadata !{i32 786478, i32 0, metadata !629, metadata !"operator++", metadata !"operator++", metadata !"_ZN11ap_int_baseILi9ELb1ELb1EEppEi", metadata !56, i32 1850, metadata !820, i1 false, i1 false, i32 0, i32 0, null, i32 256, i1 false, null, null, i32 0, metadata !68, i32 1850} ; [ DW_TAG_subprogram ]
!820 = metadata !{i32 786453, i32 0, metadata !"", i32 0, i32 0, i64 0, i64 0, i64 0, i32 0, null, metadata !821, i32 0, i32 0} ; [ DW_TAG_subroutine_type ]
!821 = metadata !{metadata !700, metadata !645, metadata !72}
!822 = metadata !{i32 786478, i32 0, metadata !629, metadata !"operator--", metadata !"operator--", metadata !"_ZN11ap_int_baseILi9ELb1ELb1EEmmEi", metadata !56, i32 1855, metadata !820, i1 false, i1 false, i32 0, i32 0, null, i32 256, i1 false, null, null, i32 0, metadata !68, i32 1855} ; [ DW_TAG_subprogram ]
!823 = metadata !{i32 786478, i32 0, metadata !629, metadata !"operator+", metadata !"operator+", metadata !"_ZNK11ap_int_baseILi9ELb1ELb1EEpsEv", metadata !56, i32 1864, metadata !824, i1 false, i1 false, i32 0, i32 0, null, i32 256, i1 false, null, null, i32 0, metadata !68, i32 1864} ; [ DW_TAG_subprogram ]
!824 = metadata !{i32 786453, i32 0, metadata !"", i32 0, i32 0, i64 0, i64 0, i64 0, i32 0, null, metadata !825, i32 0, i32 0} ; [ DW_TAG_subroutine_type ]
!825 = metadata !{metadata !629, metadata !752}
!826 = metadata !{i32 786478, i32 0, metadata !629, metadata !"operator!", metadata !"operator!", metadata !"_ZNK11ap_int_baseILi9ELb1ELb1EEntEv", metadata !56, i32 1870, metadata !754, i1 false, i1 false, i32 0, i32 0, null, i32 256, i1 false, null, null, i32 0, metadata !68, i32 1870} ; [ DW_TAG_subprogram ]
!827 = metadata !{i32 786478, i32 0, metadata !629, metadata !"operator-", metadata !"operator-", metadata !"_ZNK11ap_int_baseILi9ELb1ELb1EEngEv", metadata !56, i32 1875, metadata !828, i1 false, i1 false, i32 0, i32 0, null, i32 256, i1 false, null, null, i32 0, metadata !68, i32 1875} ; [ DW_TAG_subprogram ]
!828 = metadata !{i32 786453, i32 0, metadata !"", i32 0, i32 0, i64 0, i64 0, i64 0, i32 0, null, metadata !829, i32 0, i32 0} ; [ DW_TAG_subroutine_type ]
!829 = metadata !{metadata !830, metadata !752}
!830 = metadata !{i32 786434, null, metadata !"ap_int_base<10, true, true>", metadata !56, i32 650, i32 0, i32 0, i32 0, i32 4, null, null, i32 0} ; [ DW_TAG_class_type ]
!831 = metadata !{i32 786478, i32 0, metadata !629, metadata !"range", metadata !"range", metadata !"_ZN11ap_int_baseILi9ELb1ELb1EE5rangeEii", metadata !56, i32 2005, metadata !832, i1 false, i1 false, i32 0, i32 0, null, i32 256, i1 false, null, null, i32 0, metadata !68, i32 2005} ; [ DW_TAG_subprogram ]
!832 = metadata !{i32 786453, i32 0, metadata !"", i32 0, i32 0, i64 0, i64 0, i64 0, i32 0, null, metadata !833, i32 0, i32 0} ; [ DW_TAG_subroutine_type ]
!833 = metadata !{metadata !834, metadata !645, metadata !72, metadata !72}
!834 = metadata !{i32 786434, null, metadata !"ap_range_ref<9, true>", metadata !56, i32 923, i32 0, i32 0, i32 0, i32 4, null, null, i32 0} ; [ DW_TAG_class_type ]
!835 = metadata !{i32 786478, i32 0, metadata !629, metadata !"operator()", metadata !"operator()", metadata !"_ZN11ap_int_baseILi9ELb1ELb1EEclEii", metadata !56, i32 2011, metadata !832, i1 false, i1 false, i32 0, i32 0, null, i32 256, i1 false, null, null, i32 0, metadata !68, i32 2011} ; [ DW_TAG_subprogram ]
!836 = metadata !{i32 786478, i32 0, metadata !629, metadata !"range", metadata !"range", metadata !"_ZNK11ap_int_baseILi9ELb1ELb1EE5rangeEii", metadata !56, i32 2017, metadata !837, i1 false, i1 false, i32 0, i32 0, null, i32 256, i1 false, null, null, i32 0, metadata !68, i32 2017} ; [ DW_TAG_subprogram ]
!837 = metadata !{i32 786453, i32 0, metadata !"", i32 0, i32 0, i64 0, i64 0, i64 0, i32 0, null, metadata !838, i32 0, i32 0} ; [ DW_TAG_subroutine_type ]
!838 = metadata !{metadata !834, metadata !752, metadata !72, metadata !72}
!839 = metadata !{i32 786478, i32 0, metadata !629, metadata !"operator()", metadata !"operator()", metadata !"_ZNK11ap_int_baseILi9ELb1ELb1EEclEii", metadata !56, i32 2023, metadata !837, i1 false, i1 false, i32 0, i32 0, null, i32 256, i1 false, null, null, i32 0, metadata !68, i32 2023} ; [ DW_TAG_subprogram ]
!840 = metadata !{i32 786478, i32 0, metadata !629, metadata !"operator[]", metadata !"operator[]", metadata !"_ZN11ap_int_baseILi9ELb1ELb1EEixEi", metadata !56, i32 2042, metadata !841, i1 false, i1 false, i32 0, i32 0, null, i32 256, i1 false, null, null, i32 0, metadata !68, i32 2042} ; [ DW_TAG_subprogram ]
!841 = metadata !{i32 786453, i32 0, metadata !"", i32 0, i32 0, i64 0, i64 0, i64 0, i32 0, null, metadata !842, i32 0, i32 0} ; [ DW_TAG_subroutine_type ]
!842 = metadata !{metadata !843, metadata !645, metadata !72}
!843 = metadata !{i32 786434, null, metadata !"ap_bit_ref<9, true>", metadata !56, i32 1193, i64 128, i64 64, i32 0, i32 0, null, metadata !844, i32 0, null, metadata !877} ; [ DW_TAG_class_type ]
!844 = metadata !{metadata !845, metadata !846, metadata !847, metadata !853, metadata !857, metadata !861, metadata !862, metadata !866, metadata !869, metadata !870, metadata !873, metadata !874}
!845 = metadata !{i32 786445, metadata !843, metadata !"d_bv", metadata !56, i32 1194, i64 64, i64 64, i64 0, i32 0, metadata !710} ; [ DW_TAG_member ]
!846 = metadata !{i32 786445, metadata !843, metadata !"d_index", metadata !56, i32 1195, i64 32, i64 32, i64 64, i32 0, metadata !72} ; [ DW_TAG_member ]
!847 = metadata !{i32 786478, i32 0, metadata !843, metadata !"ap_bit_ref", metadata !"ap_bit_ref", metadata !"", metadata !56, i32 1198, metadata !848, i1 false, i1 false, i32 0, i32 0, null, i32 256, i1 false, null, null, i32 0, metadata !68, i32 1198} ; [ DW_TAG_subprogram ]
!848 = metadata !{i32 786453, i32 0, metadata !"", i32 0, i32 0, i64 0, i64 0, i64 0, i32 0, null, metadata !849, i32 0, i32 0} ; [ DW_TAG_subroutine_type ]
!849 = metadata !{null, metadata !850, metadata !851}
!850 = metadata !{i32 786447, i32 0, metadata !"", i32 0, i32 0, i64 64, i64 64, i64 0, i32 64, metadata !843} ; [ DW_TAG_pointer_type ]
!851 = metadata !{i32 786448, null, null, null, i32 0, i64 0, i64 0, i64 0, i32 0, metadata !852} ; [ DW_TAG_reference_type ]
!852 = metadata !{i32 786470, null, metadata !"", null, i32 0, i64 0, i64 0, i64 0, i32 0, metadata !843} ; [ DW_TAG_const_type ]
!853 = metadata !{i32 786478, i32 0, metadata !843, metadata !"ap_bit_ref", metadata !"ap_bit_ref", metadata !"", metadata !56, i32 1201, metadata !854, i1 false, i1 false, i32 0, i32 0, null, i32 256, i1 false, null, null, i32 0, metadata !68, i32 1201} ; [ DW_TAG_subprogram ]
!854 = metadata !{i32 786453, i32 0, metadata !"", i32 0, i32 0, i64 0, i64 0, i64 0, i32 0, null, metadata !855, i32 0, i32 0} ; [ DW_TAG_subroutine_type ]
!855 = metadata !{null, metadata !850, metadata !856, metadata !72}
!856 = metadata !{i32 786447, null, metadata !"", null, i32 0, i64 64, i64 64, i64 0, i32 0, metadata !629} ; [ DW_TAG_pointer_type ]
!857 = metadata !{i32 786478, i32 0, metadata !843, metadata !"operator _Bool", metadata !"operator _Bool", metadata !"_ZNK10ap_bit_refILi9ELb1EEcvbEv", metadata !56, i32 1203, metadata !858, i1 false, i1 false, i32 0, i32 0, null, i32 256, i1 false, null, null, i32 0, metadata !68, i32 1203} ; [ DW_TAG_subprogram ]
!858 = metadata !{i32 786453, i32 0, metadata !"", i32 0, i32 0, i64 0, i64 0, i64 0, i32 0, null, metadata !859, i32 0, i32 0} ; [ DW_TAG_subroutine_type ]
!859 = metadata !{metadata !74, metadata !860}
!860 = metadata !{i32 786447, i32 0, metadata !"", i32 0, i32 0, i64 64, i64 64, i64 0, i32 64, metadata !852} ; [ DW_TAG_pointer_type ]
!861 = metadata !{i32 786478, i32 0, metadata !843, metadata !"to_bool", metadata !"to_bool", metadata !"_ZNK10ap_bit_refILi9ELb1EE7to_boolEv", metadata !56, i32 1204, metadata !858, i1 false, i1 false, i32 0, i32 0, null, i32 256, i1 false, null, null, i32 0, metadata !68, i32 1204} ; [ DW_TAG_subprogram ]
!862 = metadata !{i32 786478, i32 0, metadata !843, metadata !"operator=", metadata !"operator=", metadata !"_ZN10ap_bit_refILi9ELb1EEaSEy", metadata !56, i32 1206, metadata !863, i1 false, i1 false, i32 0, i32 0, null, i32 256, i1 false, null, null, i32 0, metadata !68, i32 1206} ; [ DW_TAG_subprogram ]
!863 = metadata !{i32 786453, i32 0, metadata !"", i32 0, i32 0, i64 0, i64 0, i64 0, i32 0, null, metadata !864, i32 0, i32 0} ; [ DW_TAG_subroutine_type ]
!864 = metadata !{metadata !865, metadata !850, metadata !136}
!865 = metadata !{i32 786448, null, null, null, i32 0, i64 0, i64 0, i64 0, i32 0, metadata !843} ; [ DW_TAG_reference_type ]
!866 = metadata !{i32 786478, i32 0, metadata !843, metadata !"operator=", metadata !"operator=", metadata !"_ZN10ap_bit_refILi9ELb1EEaSERKS0_", metadata !56, i32 1226, metadata !867, i1 false, i1 false, i32 0, i32 0, null, i32 256, i1 false, null, null, i32 0, metadata !68, i32 1226} ; [ DW_TAG_subprogram ]
!867 = metadata !{i32 786453, i32 0, metadata !"", i32 0, i32 0, i64 0, i64 0, i64 0, i32 0, null, metadata !868, i32 0, i32 0} ; [ DW_TAG_subroutine_type ]
!868 = metadata !{metadata !865, metadata !850, metadata !851}
!869 = metadata !{i32 786478, i32 0, metadata !843, metadata !"get", metadata !"get", metadata !"_ZNK10ap_bit_refILi9ELb1EE3getEv", metadata !56, i32 1334, metadata !858, i1 false, i1 false, i32 0, i32 0, null, i32 256, i1 false, null, null, i32 0, metadata !68, i32 1334} ; [ DW_TAG_subprogram ]
!870 = metadata !{i32 786478, i32 0, metadata !843, metadata !"get", metadata !"get", metadata !"_ZN10ap_bit_refILi9ELb1EE3getEv", metadata !56, i32 1338, metadata !871, i1 false, i1 false, i32 0, i32 0, null, i32 256, i1 false, null, null, i32 0, metadata !68, i32 1338} ; [ DW_TAG_subprogram ]
!871 = metadata !{i32 786453, i32 0, metadata !"", i32 0, i32 0, i64 0, i64 0, i64 0, i32 0, null, metadata !872, i32 0, i32 0} ; [ DW_TAG_subroutine_type ]
!872 = metadata !{metadata !74, metadata !850}
!873 = metadata !{i32 786478, i32 0, metadata !843, metadata !"operator~", metadata !"operator~", metadata !"_ZNK10ap_bit_refILi9ELb1EEcoEv", metadata !56, i32 1347, metadata !858, i1 false, i1 false, i32 0, i32 0, null, i32 256, i1 false, null, null, i32 0, metadata !68, i32 1347} ; [ DW_TAG_subprogram ]
!874 = metadata !{i32 786478, i32 0, metadata !843, metadata !"length", metadata !"length", metadata !"_ZNK10ap_bit_refILi9ELb1EE6lengthEv", metadata !56, i32 1352, metadata !875, i1 false, i1 false, i32 0, i32 0, null, i32 256, i1 false, null, null, i32 0, metadata !68, i32 1352} ; [ DW_TAG_subprogram ]
!875 = metadata !{i32 786453, i32 0, metadata !"", i32 0, i32 0, i64 0, i64 0, i64 0, i32 0, null, metadata !876, i32 0, i32 0} ; [ DW_TAG_subroutine_type ]
!876 = metadata !{metadata !72, metadata !860}
!877 = metadata !{metadata !878, metadata !73}
!878 = metadata !{i32 786480, null, metadata !"_AP_W", metadata !72, i64 9, null, i32 0, i32 0} ; [ DW_TAG_template_value_parameter ]
!879 = metadata !{i32 786478, i32 0, metadata !629, metadata !"operator[]", metadata !"operator[]", metadata !"_ZNK11ap_int_baseILi9ELb1ELb1EEixEi", metadata !56, i32 2056, metadata !803, i1 false, i1 false, i32 0, i32 0, null, i32 256, i1 false, null, null, i32 0, metadata !68, i32 2056} ; [ DW_TAG_subprogram ]
!880 = metadata !{i32 786478, i32 0, metadata !629, metadata !"bit", metadata !"bit", metadata !"_ZN11ap_int_baseILi9ELb1ELb1EE3bitEi", metadata !56, i32 2070, metadata !841, i1 false, i1 false, i32 0, i32 0, null, i32 256, i1 false, null, null, i32 0, metadata !68, i32 2070} ; [ DW_TAG_subprogram ]
!881 = metadata !{i32 786478, i32 0, metadata !629, metadata !"bit", metadata !"bit", metadata !"_ZNK11ap_int_baseILi9ELb1ELb1EE3bitEi", metadata !56, i32 2084, metadata !803, i1 false, i1 false, i32 0, i32 0, null, i32 256, i1 false, null, null, i32 0, metadata !68, i32 2084} ; [ DW_TAG_subprogram ]
!882 = metadata !{i32 786478, i32 0, metadata !629, metadata !"and_reduce", metadata !"and_reduce", metadata !"_ZN11ap_int_baseILi9ELb1ELb1EE10and_reduceEv", metadata !56, i32 2264, metadata !883, i1 false, i1 false, i32 0, i32 0, null, i32 256, i1 false, null, null, i32 0, metadata !68, i32 2264} ; [ DW_TAG_subprogram ]
!883 = metadata !{i32 786453, i32 0, metadata !"", i32 0, i32 0, i64 0, i64 0, i64 0, i32 0, null, metadata !884, i32 0, i32 0} ; [ DW_TAG_subroutine_type ]
!884 = metadata !{metadata !74, metadata !645}
!885 = metadata !{i32 786478, i32 0, metadata !629, metadata !"nand_reduce", metadata !"nand_reduce", metadata !"_ZN11ap_int_baseILi9ELb1ELb1EE11nand_reduceEv", metadata !56, i32 2267, metadata !883, i1 false, i1 false, i32 0, i32 0, null, i32 256, i1 false, null, null, i32 0, metadata !68, i32 2267} ; [ DW_TAG_subprogram ]
!886 = metadata !{i32 786478, i32 0, metadata !629, metadata !"or_reduce", metadata !"or_reduce", metadata !"_ZN11ap_int_baseILi9ELb1ELb1EE9or_reduceEv", metadata !56, i32 2270, metadata !883, i1 false, i1 false, i32 0, i32 0, null, i32 256, i1 false, null, null, i32 0, metadata !68, i32 2270} ; [ DW_TAG_subprogram ]
!887 = metadata !{i32 786478, i32 0, metadata !629, metadata !"nor_reduce", metadata !"nor_reduce", metadata !"_ZN11ap_int_baseILi9ELb1ELb1EE10nor_reduceEv", metadata !56, i32 2273, metadata !883, i1 false, i1 false, i32 0, i32 0, null, i32 256, i1 false, null, null, i32 0, metadata !68, i32 2273} ; [ DW_TAG_subprogram ]
!888 = metadata !{i32 786478, i32 0, metadata !629, metadata !"xor_reduce", metadata !"xor_reduce", metadata !"_ZN11ap_int_baseILi9ELb1ELb1EE10xor_reduceEv", metadata !56, i32 2276, metadata !883, i1 false, i1 false, i32 0, i32 0, null, i32 256, i1 false, null, null, i32 0, metadata !68, i32 2276} ; [ DW_TAG_subprogram ]
!889 = metadata !{i32 786478, i32 0, metadata !629, metadata !"xnor_reduce", metadata !"xnor_reduce", metadata !"_ZN11ap_int_baseILi9ELb1ELb1EE11xnor_reduceEv", metadata !56, i32 2279, metadata !883, i1 false, i1 false, i32 0, i32 0, null, i32 256, i1 false, null, null, i32 0, metadata !68, i32 2279} ; [ DW_TAG_subprogram ]
!890 = metadata !{i32 786478, i32 0, metadata !629, metadata !"and_reduce", metadata !"and_reduce", metadata !"_ZNK11ap_int_baseILi9ELb1ELb1EE10and_reduceEv", metadata !56, i32 2283, metadata !754, i1 false, i1 false, i32 0, i32 0, null, i32 256, i1 false, null, null, i32 0, metadata !68, i32 2283} ; [ DW_TAG_subprogram ]
!891 = metadata !{i32 786478, i32 0, metadata !629, metadata !"nand_reduce", metadata !"nand_reduce", metadata !"_ZNK11ap_int_baseILi9ELb1ELb1EE11nand_reduceEv", metadata !56, i32 2286, metadata !754, i1 false, i1 false, i32 0, i32 0, null, i32 256, i1 false, null, null, i32 0, metadata !68, i32 2286} ; [ DW_TAG_subprogram ]
!892 = metadata !{i32 786478, i32 0, metadata !629, metadata !"or_reduce", metadata !"or_reduce", metadata !"_ZNK11ap_int_baseILi9ELb1ELb1EE9or_reduceEv", metadata !56, i32 2289, metadata !754, i1 false, i1 false, i32 0, i32 0, null, i32 256, i1 false, null, null, i32 0, metadata !68, i32 2289} ; [ DW_TAG_subprogram ]
!893 = metadata !{i32 786478, i32 0, metadata !629, metadata !"nor_reduce", metadata !"nor_reduce", metadata !"_ZNK11ap_int_baseILi9ELb1ELb1EE10nor_reduceEv", metadata !56, i32 2292, metadata !754, i1 false, i1 false, i32 0, i32 0, null, i32 256, i1 false, null, null, i32 0, metadata !68, i32 2292} ; [ DW_TAG_subprogram ]
!894 = metadata !{i32 786478, i32 0, metadata !629, metadata !"xor_reduce", metadata !"xor_reduce", metadata !"_ZNK11ap_int_baseILi9ELb1ELb1EE10xor_reduceEv", metadata !56, i32 2295, metadata !754, i1 false, i1 false, i32 0, i32 0, null, i32 256, i1 false, null, null, i32 0, metadata !68, i32 2295} ; [ DW_TAG_subprogram ]
!895 = metadata !{i32 786478, i32 0, metadata !629, metadata !"xnor_reduce", metadata !"xnor_reduce", metadata !"_ZNK11ap_int_baseILi9ELb1ELb1EE11xnor_reduceEv", metadata !56, i32 2298, metadata !754, i1 false, i1 false, i32 0, i32 0, null, i32 256, i1 false, null, null, i32 0, metadata !68, i32 2298} ; [ DW_TAG_subprogram ]
!896 = metadata !{i32 786478, i32 0, metadata !629, metadata !"to_string", metadata !"to_string", metadata !"_ZNK11ap_int_baseILi9ELb1ELb1EE9to_stringEPci8BaseModeb", metadata !56, i32 2305, metadata !897, i1 false, i1 false, i32 0, i32 0, null, i32 256, i1 false, null, null, i32 0, metadata !68, i32 2305} ; [ DW_TAG_subprogram ]
!897 = metadata !{i32 786453, i32 0, metadata !"", i32 0, i32 0, i64 0, i64 0, i64 0, i32 0, null, metadata !898, i32 0, i32 0} ; [ DW_TAG_subroutine_type ]
!898 = metadata !{null, metadata !752, metadata !320, metadata !72, metadata !321, metadata !74}
!899 = metadata !{i32 786478, i32 0, metadata !629, metadata !"to_string", metadata !"to_string", metadata !"_ZNK11ap_int_baseILi9ELb1ELb1EE9to_stringE8BaseModeb", metadata !56, i32 2332, metadata !900, i1 false, i1 false, i32 0, i32 0, null, i32 256, i1 false, null, null, i32 0, metadata !68, i32 2332} ; [ DW_TAG_subprogram ]
!900 = metadata !{i32 786453, i32 0, metadata !"", i32 0, i32 0, i64 0, i64 0, i64 0, i32 0, null, metadata !901, i32 0, i32 0} ; [ DW_TAG_subroutine_type ]
!901 = metadata !{metadata !320, metadata !752, metadata !321, metadata !74}
!902 = metadata !{i32 786478, i32 0, metadata !629, metadata !"to_string", metadata !"to_string", metadata !"_ZNK11ap_int_baseILi9ELb1ELb1EE9to_stringEab", metadata !56, i32 2336, metadata !903, i1 false, i1 false, i32 0, i32 0, null, i32 256, i1 false, null, null, i32 0, metadata !68, i32 2336} ; [ DW_TAG_subprogram ]
!903 = metadata !{i32 786453, i32 0, metadata !"", i32 0, i32 0, i64 0, i64 0, i64 0, i32 0, null, metadata !904, i32 0, i32 0} ; [ DW_TAG_subroutine_type ]
!904 = metadata !{metadata !320, metadata !752, metadata !99, metadata !74}
!905 = metadata !{metadata !878, metadata !73, metadata !335}
!906 = metadata !{i32 786478, i32 0, metadata !419, metadata !"range", metadata !"range", metadata !"_ZN11ap_int_baseILi8ELb0ELb1EE5rangeEii", metadata !56, i32 2005, metadata !907, i1 false, i1 false, i32 0, i32 0, null, i32 256, i1 false, null, null, i32 0, metadata !68, i32 2005} ; [ DW_TAG_subprogram ]
!907 = metadata !{i32 786453, i32 0, metadata !"", i32 0, i32 0, i64 0, i64 0, i64 0, i32 0, null, metadata !908, i32 0, i32 0} ; [ DW_TAG_subroutine_type ]
!908 = metadata !{metadata !909, metadata !435, metadata !72, metadata !72}
!909 = metadata !{i32 786434, null, metadata !"ap_range_ref<8, false>", metadata !56, i32 923, i32 0, i32 0, i32 0, i32 4, null, null, i32 0} ; [ DW_TAG_class_type ]
!910 = metadata !{i32 786478, i32 0, metadata !419, metadata !"operator()", metadata !"operator()", metadata !"_ZN11ap_int_baseILi8ELb0ELb1EEclEii", metadata !56, i32 2011, metadata !907, i1 false, i1 false, i32 0, i32 0, null, i32 256, i1 false, null, null, i32 0, metadata !68, i32 2011} ; [ DW_TAG_subprogram ]
!911 = metadata !{i32 786478, i32 0, metadata !419, metadata !"range", metadata !"range", metadata !"_ZNK11ap_int_baseILi8ELb0ELb1EE5rangeEii", metadata !56, i32 2017, metadata !912, i1 false, i1 false, i32 0, i32 0, null, i32 256, i1 false, null, null, i32 0, metadata !68, i32 2017} ; [ DW_TAG_subprogram ]
!912 = metadata !{i32 786453, i32 0, metadata !"", i32 0, i32 0, i64 0, i64 0, i64 0, i32 0, null, metadata !913, i32 0, i32 0} ; [ DW_TAG_subroutine_type ]
!913 = metadata !{metadata !909, metadata !551, metadata !72, metadata !72}
!914 = metadata !{i32 786478, i32 0, metadata !419, metadata !"operator()", metadata !"operator()", metadata !"_ZNK11ap_int_baseILi8ELb0ELb1EEclEii", metadata !56, i32 2023, metadata !912, i1 false, i1 false, i32 0, i32 0, null, i32 256, i1 false, null, null, i32 0, metadata !68, i32 2023} ; [ DW_TAG_subprogram ]
!915 = metadata !{i32 786478, i32 0, metadata !419, metadata !"operator[]", metadata !"operator[]", metadata !"_ZN11ap_int_baseILi8ELb0ELb1EEixEi", metadata !56, i32 2042, metadata !916, i1 false, i1 false, i32 0, i32 0, null, i32 256, i1 false, null, null, i32 0, metadata !68, i32 2042} ; [ DW_TAG_subprogram ]
!916 = metadata !{i32 786453, i32 0, metadata !"", i32 0, i32 0, i64 0, i64 0, i64 0, i32 0, null, metadata !917, i32 0, i32 0} ; [ DW_TAG_subroutine_type ]
!917 = metadata !{metadata !918, metadata !435, metadata !72}
!918 = metadata !{i32 786434, null, metadata !"ap_bit_ref<8, false>", metadata !56, i32 1193, i32 0, i32 0, i32 0, i32 4, null, null, i32 0} ; [ DW_TAG_class_type ]
!919 = metadata !{i32 786478, i32 0, metadata !419, metadata !"operator[]", metadata !"operator[]", metadata !"_ZNK11ap_int_baseILi8ELb0ELb1EEixEi", metadata !56, i32 2056, metadata !602, i1 false, i1 false, i32 0, i32 0, null, i32 256, i1 false, null, null, i32 0, metadata !68, i32 2056} ; [ DW_TAG_subprogram ]
!920 = metadata !{i32 786478, i32 0, metadata !419, metadata !"bit", metadata !"bit", metadata !"_ZN11ap_int_baseILi8ELb0ELb1EE3bitEi", metadata !56, i32 2070, metadata !916, i1 false, i1 false, i32 0, i32 0, null, i32 256, i1 false, null, null, i32 0, metadata !68, i32 2070} ; [ DW_TAG_subprogram ]
!921 = metadata !{i32 786478, i32 0, metadata !419, metadata !"bit", metadata !"bit", metadata !"_ZNK11ap_int_baseILi8ELb0ELb1EE3bitEi", metadata !56, i32 2084, metadata !602, i1 false, i1 false, i32 0, i32 0, null, i32 256, i1 false, null, null, i32 0, metadata !68, i32 2084} ; [ DW_TAG_subprogram ]
!922 = metadata !{i32 786478, i32 0, metadata !419, metadata !"and_reduce", metadata !"and_reduce", metadata !"_ZN11ap_int_baseILi8ELb0ELb1EE10and_reduceEv", metadata !56, i32 2264, metadata !923, i1 false, i1 false, i32 0, i32 0, null, i32 256, i1 false, null, null, i32 0, metadata !68, i32 2264} ; [ DW_TAG_subprogram ]
!923 = metadata !{i32 786453, i32 0, metadata !"", i32 0, i32 0, i64 0, i64 0, i64 0, i32 0, null, metadata !924, i32 0, i32 0} ; [ DW_TAG_subroutine_type ]
!924 = metadata !{metadata !74, metadata !435}
!925 = metadata !{i32 786478, i32 0, metadata !419, metadata !"nand_reduce", metadata !"nand_reduce", metadata !"_ZN11ap_int_baseILi8ELb0ELb1EE11nand_reduceEv", metadata !56, i32 2267, metadata !923, i1 false, i1 false, i32 0, i32 0, null, i32 256, i1 false, null, null, i32 0, metadata !68, i32 2267} ; [ DW_TAG_subprogram ]
!926 = metadata !{i32 786478, i32 0, metadata !419, metadata !"or_reduce", metadata !"or_reduce", metadata !"_ZN11ap_int_baseILi8ELb0ELb1EE9or_reduceEv", metadata !56, i32 2270, metadata !923, i1 false, i1 false, i32 0, i32 0, null, i32 256, i1 false, null, null, i32 0, metadata !68, i32 2270} ; [ DW_TAG_subprogram ]
!927 = metadata !{i32 786478, i32 0, metadata !419, metadata !"nor_reduce", metadata !"nor_reduce", metadata !"_ZN11ap_int_baseILi8ELb0ELb1EE10nor_reduceEv", metadata !56, i32 2273, metadata !923, i1 false, i1 false, i32 0, i32 0, null, i32 256, i1 false, null, null, i32 0, metadata !68, i32 2273} ; [ DW_TAG_subprogram ]
!928 = metadata !{i32 786478, i32 0, metadata !419, metadata !"xor_reduce", metadata !"xor_reduce", metadata !"_ZN11ap_int_baseILi8ELb0ELb1EE10xor_reduceEv", metadata !56, i32 2276, metadata !923, i1 false, i1 false, i32 0, i32 0, null, i32 256, i1 false, null, null, i32 0, metadata !68, i32 2276} ; [ DW_TAG_subprogram ]
!929 = metadata !{i32 786478, i32 0, metadata !419, metadata !"xnor_reduce", metadata !"xnor_reduce", metadata !"_ZN11ap_int_baseILi8ELb0ELb1EE11xnor_reduceEv", metadata !56, i32 2279, metadata !923, i1 false, i1 false, i32 0, i32 0, null, i32 256, i1 false, null, null, i32 0, metadata !68, i32 2279} ; [ DW_TAG_subprogram ]
!930 = metadata !{i32 786478, i32 0, metadata !419, metadata !"and_reduce", metadata !"and_reduce", metadata !"_ZNK11ap_int_baseILi8ELb0ELb1EE10and_reduceEv", metadata !56, i32 2283, metadata !553, i1 false, i1 false, i32 0, i32 0, null, i32 256, i1 false, null, null, i32 0, metadata !68, i32 2283} ; [ DW_TAG_subprogram ]
!931 = metadata !{i32 786478, i32 0, metadata !419, metadata !"nand_reduce", metadata !"nand_reduce", metadata !"_ZNK11ap_int_baseILi8ELb0ELb1EE11nand_reduceEv", metadata !56, i32 2286, metadata !553, i1 false, i1 false, i32 0, i32 0, null, i32 256, i1 false, null, null, i32 0, metadata !68, i32 2286} ; [ DW_TAG_subprogram ]
!932 = metadata !{i32 786478, i32 0, metadata !419, metadata !"or_reduce", metadata !"or_reduce", metadata !"_ZNK11ap_int_baseILi8ELb0ELb1EE9or_reduceEv", metadata !56, i32 2289, metadata !553, i1 false, i1 false, i32 0, i32 0, null, i32 256, i1 false, null, null, i32 0, metadata !68, i32 2289} ; [ DW_TAG_subprogram ]
!933 = metadata !{i32 786478, i32 0, metadata !419, metadata !"nor_reduce", metadata !"nor_reduce", metadata !"_ZNK11ap_int_baseILi8ELb0ELb1EE10nor_reduceEv", metadata !56, i32 2292, metadata !553, i1 false, i1 false, i32 0, i32 0, null, i32 256, i1 false, null, null, i32 0, metadata !68, i32 2292} ; [ DW_TAG_subprogram ]
!934 = metadata !{i32 786478, i32 0, metadata !419, metadata !"xor_reduce", metadata !"xor_reduce", metadata !"_ZNK11ap_int_baseILi8ELb0ELb1EE10xor_reduceEv", metadata !56, i32 2295, metadata !553, i1 false, i1 false, i32 0, i32 0, null, i32 256, i1 false, null, null, i32 0, metadata !68, i32 2295} ; [ DW_TAG_subprogram ]
!935 = metadata !{i32 786478, i32 0, metadata !419, metadata !"xnor_reduce", metadata !"xnor_reduce", metadata !"_ZNK11ap_int_baseILi8ELb0ELb1EE11xnor_reduceEv", metadata !56, i32 2298, metadata !553, i1 false, i1 false, i32 0, i32 0, null, i32 256, i1 false, null, null, i32 0, metadata !68, i32 2298} ; [ DW_TAG_subprogram ]
!936 = metadata !{i32 786478, i32 0, metadata !419, metadata !"to_string", metadata !"to_string", metadata !"_ZNK11ap_int_baseILi8ELb0ELb1EE9to_stringEPci8BaseModeb", metadata !56, i32 2305, metadata !937, i1 false, i1 false, i32 0, i32 0, null, i32 256, i1 false, null, null, i32 0, metadata !68, i32 2305} ; [ DW_TAG_subprogram ]
!937 = metadata !{i32 786453, i32 0, metadata !"", i32 0, i32 0, i64 0, i64 0, i64 0, i32 0, null, metadata !938, i32 0, i32 0} ; [ DW_TAG_subroutine_type ]
!938 = metadata !{null, metadata !551, metadata !320, metadata !72, metadata !321, metadata !74}
!939 = metadata !{i32 786478, i32 0, metadata !419, metadata !"to_string", metadata !"to_string", metadata !"_ZNK11ap_int_baseILi8ELb0ELb1EE9to_stringE8BaseModeb", metadata !56, i32 2332, metadata !940, i1 false, i1 false, i32 0, i32 0, null, i32 256, i1 false, null, null, i32 0, metadata !68, i32 2332} ; [ DW_TAG_subprogram ]
!940 = metadata !{i32 786453, i32 0, metadata !"", i32 0, i32 0, i64 0, i64 0, i64 0, i32 0, null, metadata !941, i32 0, i32 0} ; [ DW_TAG_subroutine_type ]
!941 = metadata !{metadata !320, metadata !551, metadata !321, metadata !74}
!942 = metadata !{i32 786478, i32 0, metadata !419, metadata !"to_string", metadata !"to_string", metadata !"_ZNK11ap_int_baseILi8ELb0ELb1EE9to_stringEab", metadata !56, i32 2336, metadata !943, i1 false, i1 false, i32 0, i32 0, null, i32 256, i1 false, null, null, i32 0, metadata !68, i32 2336} ; [ DW_TAG_subprogram ]
!943 = metadata !{i32 786453, i32 0, metadata !"", i32 0, i32 0, i64 0, i64 0, i64 0, i32 0, null, metadata !944, i32 0, i32 0} ; [ DW_TAG_subroutine_type ]
!944 = metadata !{metadata !320, metadata !551, metadata !99, metadata !74}
!945 = metadata !{metadata !946, metadata !431, metadata !335}
!946 = metadata !{i32 786480, null, metadata !"_AP_W", metadata !72, i64 8, null, i32 0, i32 0} ; [ DW_TAG_template_value_parameter ]
!947 = metadata !{i32 786478, i32 0, metadata !416, metadata !"ap_uint", metadata !"ap_uint", metadata !"", metadata !52, i32 183, metadata !948, i1 false, i1 false, i32 0, i32 0, null, i32 256, i1 false, null, null, i32 0, metadata !68, i32 183} ; [ DW_TAG_subprogram ]
!948 = metadata !{i32 786453, i32 0, metadata !"", i32 0, i32 0, i64 0, i64 0, i64 0, i32 0, null, metadata !949, i32 0, i32 0} ; [ DW_TAG_subroutine_type ]
!949 = metadata !{null, metadata !950}
!950 = metadata !{i32 786447, i32 0, metadata !"", i32 0, i32 0, i64 64, i64 64, i64 0, i32 64, metadata !416} ; [ DW_TAG_pointer_type ]
!951 = metadata !{i32 786478, i32 0, metadata !416, metadata !"ap_uint<8>", metadata !"ap_uint<8>", metadata !"", metadata !52, i32 185, metadata !952, i1 false, i1 false, i32 0, i32 0, null, i32 256, i1 false, null, metadata !956, i32 0, metadata !68, i32 185} ; [ DW_TAG_subprogram ]
!952 = metadata !{i32 786453, i32 0, metadata !"", i32 0, i32 0, i64 0, i64 0, i64 0, i32 0, null, metadata !953, i32 0, i32 0} ; [ DW_TAG_subroutine_type ]
!953 = metadata !{null, metadata !950, metadata !954}
!954 = metadata !{i32 786448, null, null, null, i32 0, i64 0, i64 0, i64 0, i32 0, metadata !955} ; [ DW_TAG_reference_type ]
!955 = metadata !{i32 786470, null, metadata !"", null, i32 0, i64 0, i64 0, i64 0, i32 0, metadata !416} ; [ DW_TAG_const_type ]
!956 = metadata !{metadata !442}
!957 = metadata !{i32 786478, i32 0, metadata !416, metadata !"ap_uint<8>", metadata !"ap_uint<8>", metadata !"", metadata !52, i32 191, metadata !958, i1 false, i1 false, i32 0, i32 0, null, i32 256, i1 false, null, metadata !956, i32 0, metadata !68, i32 191} ; [ DW_TAG_subprogram ]
!958 = metadata !{i32 786453, i32 0, metadata !"", i32 0, i32 0, i64 0, i64 0, i64 0, i32 0, null, metadata !959, i32 0, i32 0} ; [ DW_TAG_subroutine_type ]
!959 = metadata !{null, metadata !950, metadata !960}
!960 = metadata !{i32 786448, null, null, null, i32 0, i64 0, i64 0, i64 0, i32 0, metadata !961} ; [ DW_TAG_reference_type ]
!961 = metadata !{i32 786470, null, metadata !"", null, i32 0, i64 0, i64 0, i64 0, i32 0, metadata !962} ; [ DW_TAG_const_type ]
!962 = metadata !{i32 786485, null, metadata !"", null, i32 0, i64 0, i64 0, i64 0, i32 0, metadata !416} ; [ DW_TAG_volatile_type ]
!963 = metadata !{i32 786478, i32 0, metadata !416, metadata !"ap_uint<8, false>", metadata !"ap_uint<8, false>", metadata !"", metadata !52, i32 226, metadata !964, i1 false, i1 false, i32 0, i32 0, null, i32 256, i1 false, null, metadata !441, i32 0, metadata !68, i32 226} ; [ DW_TAG_subprogram ]
!964 = metadata !{i32 786453, i32 0, metadata !"", i32 0, i32 0, i64 0, i64 0, i64 0, i32 0, null, metadata !965, i32 0, i32 0} ; [ DW_TAG_subroutine_type ]
!965 = metadata !{null, metadata !950, metadata !439}
!966 = metadata !{i32 786478, i32 0, metadata !416, metadata !"ap_uint", metadata !"ap_uint", metadata !"", metadata !52, i32 245, metadata !967, i1 false, i1 false, i32 0, i32 0, null, i32 256, i1 false, null, null, i32 0, metadata !68, i32 245} ; [ DW_TAG_subprogram ]
!967 = metadata !{i32 786453, i32 0, metadata !"", i32 0, i32 0, i64 0, i64 0, i64 0, i32 0, null, metadata !968, i32 0, i32 0} ; [ DW_TAG_subroutine_type ]
!968 = metadata !{null, metadata !950, metadata !74}
!969 = metadata !{i32 786478, i32 0, metadata !416, metadata !"ap_uint", metadata !"ap_uint", metadata !"", metadata !52, i32 246, metadata !970, i1 false, i1 false, i32 0, i32 0, null, i32 256, i1 false, null, null, i32 0, metadata !68, i32 246} ; [ DW_TAG_subprogram ]
!970 = metadata !{i32 786453, i32 0, metadata !"", i32 0, i32 0, i64 0, i64 0, i64 0, i32 0, null, metadata !971, i32 0, i32 0} ; [ DW_TAG_subroutine_type ]
!971 = metadata !{null, metadata !950, metadata !99}
!972 = metadata !{i32 786478, i32 0, metadata !416, metadata !"ap_uint", metadata !"ap_uint", metadata !"", metadata !52, i32 247, metadata !973, i1 false, i1 false, i32 0, i32 0, null, i32 256, i1 false, null, null, i32 0, metadata !68, i32 247} ; [ DW_TAG_subprogram ]
!973 = metadata !{i32 786453, i32 0, metadata !"", i32 0, i32 0, i64 0, i64 0, i64 0, i32 0, null, metadata !974, i32 0, i32 0} ; [ DW_TAG_subroutine_type ]
!974 = metadata !{null, metadata !950, metadata !103}
!975 = metadata !{i32 786478, i32 0, metadata !416, metadata !"ap_uint", metadata !"ap_uint", metadata !"", metadata !52, i32 248, metadata !976, i1 false, i1 false, i32 0, i32 0, null, i32 256, i1 false, null, null, i32 0, metadata !68, i32 248} ; [ DW_TAG_subprogram ]
!976 = metadata !{i32 786453, i32 0, metadata !"", i32 0, i32 0, i64 0, i64 0, i64 0, i32 0, null, metadata !977, i32 0, i32 0} ; [ DW_TAG_subroutine_type ]
!977 = metadata !{null, metadata !950, metadata !107}
!978 = metadata !{i32 786478, i32 0, metadata !416, metadata !"ap_uint", metadata !"ap_uint", metadata !"", metadata !52, i32 249, metadata !979, i1 false, i1 false, i32 0, i32 0, null, i32 256, i1 false, null, null, i32 0, metadata !68, i32 249} ; [ DW_TAG_subprogram ]
!979 = metadata !{i32 786453, i32 0, metadata !"", i32 0, i32 0, i64 0, i64 0, i64 0, i32 0, null, metadata !980, i32 0, i32 0} ; [ DW_TAG_subroutine_type ]
!980 = metadata !{null, metadata !950, metadata !111}
!981 = metadata !{i32 786478, i32 0, metadata !416, metadata !"ap_uint", metadata !"ap_uint", metadata !"", metadata !52, i32 250, metadata !982, i1 false, i1 false, i32 0, i32 0, null, i32 256, i1 false, null, null, i32 0, metadata !68, i32 250} ; [ DW_TAG_subprogram ]
!982 = metadata !{i32 786453, i32 0, metadata !"", i32 0, i32 0, i64 0, i64 0, i64 0, i32 0, null, metadata !983, i32 0, i32 0} ; [ DW_TAG_subroutine_type ]
!983 = metadata !{null, metadata !950, metadata !72}
!984 = metadata !{i32 786478, i32 0, metadata !416, metadata !"ap_uint", metadata !"ap_uint", metadata !"", metadata !52, i32 251, metadata !985, i1 false, i1 false, i32 0, i32 0, null, i32 256, i1 false, null, null, i32 0, metadata !68, i32 251} ; [ DW_TAG_subprogram ]
!985 = metadata !{i32 786453, i32 0, metadata !"", i32 0, i32 0, i64 0, i64 0, i64 0, i32 0, null, metadata !986, i32 0, i32 0} ; [ DW_TAG_subroutine_type ]
!986 = metadata !{null, metadata !950, metadata !118}
!987 = metadata !{i32 786478, i32 0, metadata !416, metadata !"ap_uint", metadata !"ap_uint", metadata !"", metadata !52, i32 252, metadata !988, i1 false, i1 false, i32 0, i32 0, null, i32 256, i1 false, null, null, i32 0, metadata !68, i32 252} ; [ DW_TAG_subprogram ]
!988 = metadata !{i32 786453, i32 0, metadata !"", i32 0, i32 0, i64 0, i64 0, i64 0, i32 0, null, metadata !989, i32 0, i32 0} ; [ DW_TAG_subroutine_type ]
!989 = metadata !{null, metadata !950, metadata !122}
!990 = metadata !{i32 786478, i32 0, metadata !416, metadata !"ap_uint", metadata !"ap_uint", metadata !"", metadata !52, i32 253, metadata !991, i1 false, i1 false, i32 0, i32 0, null, i32 256, i1 false, null, null, i32 0, metadata !68, i32 253} ; [ DW_TAG_subprogram ]
!991 = metadata !{i32 786453, i32 0, metadata !"", i32 0, i32 0, i64 0, i64 0, i64 0, i32 0, null, metadata !992, i32 0, i32 0} ; [ DW_TAG_subroutine_type ]
!992 = metadata !{null, metadata !950, metadata !126}
!993 = metadata !{i32 786478, i32 0, metadata !416, metadata !"ap_uint", metadata !"ap_uint", metadata !"", metadata !52, i32 254, metadata !994, i1 false, i1 false, i32 0, i32 0, null, i32 256, i1 false, null, null, i32 0, metadata !68, i32 254} ; [ DW_TAG_subprogram ]
!994 = metadata !{i32 786453, i32 0, metadata !"", i32 0, i32 0, i64 0, i64 0, i64 0, i32 0, null, metadata !995, i32 0, i32 0} ; [ DW_TAG_subroutine_type ]
!995 = metadata !{null, metadata !950, metadata !136}
!996 = metadata !{i32 786478, i32 0, metadata !416, metadata !"ap_uint", metadata !"ap_uint", metadata !"", metadata !52, i32 255, metadata !997, i1 false, i1 false, i32 0, i32 0, null, i32 256, i1 false, null, null, i32 0, metadata !68, i32 255} ; [ DW_TAG_subprogram ]
!997 = metadata !{i32 786453, i32 0, metadata !"", i32 0, i32 0, i64 0, i64 0, i64 0, i32 0, null, metadata !998, i32 0, i32 0} ; [ DW_TAG_subroutine_type ]
!998 = metadata !{null, metadata !950, metadata !131}
!999 = metadata !{i32 786478, i32 0, metadata !416, metadata !"ap_uint", metadata !"ap_uint", metadata !"", metadata !52, i32 256, metadata !1000, i1 false, i1 false, i32 0, i32 0, null, i32 256, i1 false, null, null, i32 0, metadata !68, i32 256} ; [ DW_TAG_subprogram ]
!1000 = metadata !{i32 786453, i32 0, metadata !"", i32 0, i32 0, i64 0, i64 0, i64 0, i32 0, null, metadata !1001, i32 0, i32 0} ; [ DW_TAG_subroutine_type ]
!1001 = metadata !{null, metadata !950, metadata !140}
!1002 = metadata !{i32 786478, i32 0, metadata !416, metadata !"ap_uint", metadata !"ap_uint", metadata !"", metadata !52, i32 257, metadata !1003, i1 false, i1 false, i32 0, i32 0, null, i32 256, i1 false, null, null, i32 0, metadata !68, i32 257} ; [ DW_TAG_subprogram ]
!1003 = metadata !{i32 786453, i32 0, metadata !"", i32 0, i32 0, i64 0, i64 0, i64 0, i32 0, null, metadata !1004, i32 0, i32 0} ; [ DW_TAG_subroutine_type ]
!1004 = metadata !{null, metadata !950, metadata !144}
!1005 = metadata !{i32 786478, i32 0, metadata !416, metadata !"ap_uint", metadata !"ap_uint", metadata !"", metadata !52, i32 259, metadata !1006, i1 false, i1 false, i32 0, i32 0, null, i32 256, i1 false, null, null, i32 0, metadata !68, i32 259} ; [ DW_TAG_subprogram ]
!1006 = metadata !{i32 786453, i32 0, metadata !"", i32 0, i32 0, i64 0, i64 0, i64 0, i32 0, null, metadata !1007, i32 0, i32 0} ; [ DW_TAG_subroutine_type ]
!1007 = metadata !{null, metadata !950, metadata !148}
!1008 = metadata !{i32 786478, i32 0, metadata !416, metadata !"ap_uint", metadata !"ap_uint", metadata !"", metadata !52, i32 260, metadata !1009, i1 false, i1 false, i32 0, i32 0, null, i32 256, i1 false, null, null, i32 0, metadata !68, i32 260} ; [ DW_TAG_subprogram ]
!1009 = metadata !{i32 786453, i32 0, metadata !"", i32 0, i32 0, i64 0, i64 0, i64 0, i32 0, null, metadata !1010, i32 0, i32 0} ; [ DW_TAG_subroutine_type ]
!1010 = metadata !{null, metadata !950, metadata !148, metadata !99}
!1011 = metadata !{i32 786478, i32 0, metadata !416, metadata !"operator=", metadata !"operator=", metadata !"_ZNV7ap_uintILi8EEaSERKS0_", metadata !52, i32 263, metadata !1012, i1 false, i1 false, i32 0, i32 0, null, i32 256, i1 false, null, null, i32 0, metadata !68, i32 263} ; [ DW_TAG_subprogram ]
!1012 = metadata !{i32 786453, i32 0, metadata !"", i32 0, i32 0, i64 0, i64 0, i64 0, i32 0, null, metadata !1013, i32 0, i32 0} ; [ DW_TAG_subroutine_type ]
!1013 = metadata !{null, metadata !1014, metadata !954}
!1014 = metadata !{i32 786447, i32 0, metadata !"", i32 0, i32 0, i64 64, i64 64, i64 0, i32 64, metadata !962} ; [ DW_TAG_pointer_type ]
!1015 = metadata !{i32 786478, i32 0, metadata !416, metadata !"operator=", metadata !"operator=", metadata !"_ZNV7ap_uintILi8EEaSERVKS0_", metadata !52, i32 267, metadata !1016, i1 false, i1 false, i32 0, i32 0, null, i32 256, i1 false, null, null, i32 0, metadata !68, i32 267} ; [ DW_TAG_subprogram ]
!1016 = metadata !{i32 786453, i32 0, metadata !"", i32 0, i32 0, i64 0, i64 0, i64 0, i32 0, null, metadata !1017, i32 0, i32 0} ; [ DW_TAG_subroutine_type ]
!1017 = metadata !{null, metadata !1014, metadata !960}
!1018 = metadata !{i32 786478, i32 0, metadata !416, metadata !"operator=", metadata !"operator=", metadata !"_ZN7ap_uintILi8EEaSERVKS0_", metadata !52, i32 271, metadata !1019, i1 false, i1 false, i32 0, i32 0, null, i32 256, i1 false, null, null, i32 0, metadata !68, i32 271} ; [ DW_TAG_subprogram ]
!1019 = metadata !{i32 786453, i32 0, metadata !"", i32 0, i32 0, i64 0, i64 0, i64 0, i32 0, null, metadata !1020, i32 0, i32 0} ; [ DW_TAG_subroutine_type ]
!1020 = metadata !{metadata !1021, metadata !950, metadata !960}
!1021 = metadata !{i32 786448, null, null, null, i32 0, i64 0, i64 0, i64 0, i32 0, metadata !416} ; [ DW_TAG_reference_type ]
!1022 = metadata !{i32 786478, i32 0, metadata !416, metadata !"operator=", metadata !"operator=", metadata !"_ZN7ap_uintILi8EEaSERKS0_", metadata !52, i32 276, metadata !1023, i1 false, i1 false, i32 0, i32 0, null, i32 256, i1 false, null, null, i32 0, metadata !68, i32 276} ; [ DW_TAG_subprogram ]
!1023 = metadata !{i32 786453, i32 0, metadata !"", i32 0, i32 0, i64 0, i64 0, i64 0, i32 0, null, metadata !1024, i32 0, i32 0} ; [ DW_TAG_subroutine_type ]
!1024 = metadata !{metadata !1021, metadata !950, metadata !954}
!1025 = metadata !{metadata !946}
!1026 = metadata !{i32 786445, metadata !47, metadata !"strb", metadata !48, i32 93, i64 8, i64 8, i64 72, i32 0, metadata !416} ; [ DW_TAG_member ]
!1027 = metadata !{i32 786445, metadata !47, metadata !"user", metadata !48, i32 94, i64 8, i64 8, i64 80, i32 0, metadata !1028} ; [ DW_TAG_member ]
!1028 = metadata !{i32 786434, null, metadata !"ap_uint<2>", metadata !52, i32 180, i64 8, i64 8, i32 0, i32 0, null, metadata !1029, i32 0, null, metadata !1389} ; [ DW_TAG_class_type ]
!1029 = metadata !{metadata !1030, metadata !1311, metadata !1315, metadata !1321, metadata !1327, metadata !1330, metadata !1333, metadata !1336, metadata !1339, metadata !1342, metadata !1345, metadata !1348, metadata !1351, metadata !1354, metadata !1357, metadata !1360, metadata !1363, metadata !1366, metadata !1369, metadata !1372, metadata !1375, metadata !1379, metadata !1382, metadata !1386}
!1030 = metadata !{i32 786460, metadata !1028, null, metadata !52, i32 0, i64 0, i64 0, i64 0, i32 0, metadata !1031} ; [ DW_TAG_inheritance ]
!1031 = metadata !{i32 786434, null, metadata !"ap_int_base<2, false, true>", metadata !56, i32 1397, i64 8, i64 8, i32 0, i32 0, null, metadata !1032, i32 0, null, metadata !1310} ; [ DW_TAG_class_type ]
!1032 = metadata !{metadata !1033, metadata !1043, metadata !1047, metadata !1054, metadata !1060, metadata !1063, metadata !1066, metadata !1069, metadata !1072, metadata !1075, metadata !1078, metadata !1081, metadata !1084, metadata !1087, metadata !1090, metadata !1093, metadata !1096, metadata !1099, metadata !1102, metadata !1105, metadata !1109, metadata !1112, metadata !1115, metadata !1116, metadata !1120, metadata !1123, metadata !1126, metadata !1129, metadata !1132, metadata !1135, metadata !1138, metadata !1141, metadata !1144, metadata !1147, metadata !1150, metadata !1153, metadata !1158, metadata !1161, metadata !1164, metadata !1167, metadata !1170, metadata !1173, metadata !1176, metadata !1179, metadata !1182, metadata !1185, metadata !1188, metadata !1191, metadata !1194, metadata !1195, metadata !1199, metadata !1202, metadata !1203, metadata !1204, metadata !1205, metadata !1206, metadata !1207, metadata !1210, metadata !1211, metadata !1214, metadata !1215, metadata !1216, metadata !1217, metadata !1218, metadata !1219, metadata !1222, metadata !1223, metadata !1224, metadata !1227, metadata !1228, metadata !1231, metadata !1232, metadata !1236, metadata !1240, metadata !1241, metadata !1244, metadata !1245, metadata !1284, metadata !1285, metadata !1286, metadata !1287, metadata !1290, metadata !1291, metadata !1292, metadata !1293, metadata !1294, metadata !1295, metadata !1296, metadata !1297, metadata !1298, metadata !1299, metadata !1300, metadata !1301, metadata !1304, metadata !1307}
!1033 = metadata !{i32 786460, metadata !1031, null, metadata !56, i32 0, i64 0, i64 0, i64 0, i32 0, metadata !1034} ; [ DW_TAG_inheritance ]
!1034 = metadata !{i32 786434, null, metadata !"ssdm_int<2 + 1024 * 0, false>", metadata !60, i32 4, i64 8, i64 8, i32 0, i32 0, null, metadata !1035, i32 0, null, metadata !1042} ; [ DW_TAG_class_type ]
!1035 = metadata !{metadata !1036, metadata !1038}
!1036 = metadata !{i32 786445, metadata !1034, metadata !"V", metadata !60, i32 4, i64 2, i64 2, i64 0, i32 0, metadata !1037} ; [ DW_TAG_member ]
!1037 = metadata !{i32 786468, null, metadata !"uint2", null, i32 0, i64 2, i64 2, i64 0, i32 0, i32 7} ; [ DW_TAG_base_type ]
!1038 = metadata !{i32 786478, i32 0, metadata !1034, metadata !"ssdm_int", metadata !"ssdm_int", metadata !"", metadata !60, i32 4, metadata !1039, i1 false, i1 false, i32 0, i32 0, null, i32 256, i1 false, null, null, i32 0, metadata !68, i32 4} ; [ DW_TAG_subprogram ]
!1039 = metadata !{i32 786453, i32 0, metadata !"", i32 0, i32 0, i64 0, i64 0, i64 0, i32 0, null, metadata !1040, i32 0, i32 0} ; [ DW_TAG_subroutine_type ]
!1040 = metadata !{null, metadata !1041}
!1041 = metadata !{i32 786447, i32 0, metadata !"", i32 0, i32 0, i64 64, i64 64, i64 0, i32 64, metadata !1034} ; [ DW_TAG_pointer_type ]
!1042 = metadata !{metadata !751, metadata !431}
!1043 = metadata !{i32 786478, i32 0, metadata !1031, metadata !"ap_int_base", metadata !"ap_int_base", metadata !"", metadata !56, i32 1438, metadata !1044, i1 false, i1 false, i32 0, i32 0, null, i32 256, i1 false, null, null, i32 0, metadata !68, i32 1438} ; [ DW_TAG_subprogram ]
!1044 = metadata !{i32 786453, i32 0, metadata !"", i32 0, i32 0, i64 0, i64 0, i64 0, i32 0, null, metadata !1045, i32 0, i32 0} ; [ DW_TAG_subroutine_type ]
!1045 = metadata !{null, metadata !1046}
!1046 = metadata !{i32 786447, i32 0, metadata !"", i32 0, i32 0, i64 64, i64 64, i64 0, i32 64, metadata !1031} ; [ DW_TAG_pointer_type ]
!1047 = metadata !{i32 786478, i32 0, metadata !1031, metadata !"ap_int_base<2, false>", metadata !"ap_int_base<2, false>", metadata !"", metadata !56, i32 1450, metadata !1048, i1 false, i1 false, i32 0, i32 0, null, i32 256, i1 false, null, metadata !1052, i32 0, metadata !68, i32 1450} ; [ DW_TAG_subprogram ]
!1048 = metadata !{i32 786453, i32 0, metadata !"", i32 0, i32 0, i64 0, i64 0, i64 0, i32 0, null, metadata !1049, i32 0, i32 0} ; [ DW_TAG_subroutine_type ]
!1049 = metadata !{null, metadata !1046, metadata !1050}
!1050 = metadata !{i32 786448, null, null, null, i32 0, i64 0, i64 0, i64 0, i32 0, metadata !1051} ; [ DW_TAG_reference_type ]
!1051 = metadata !{i32 786470, null, metadata !"", null, i32 0, i64 0, i64 0, i64 0, i32 0, metadata !1031} ; [ DW_TAG_const_type ]
!1052 = metadata !{metadata !1053, metadata !443}
!1053 = metadata !{i32 786480, null, metadata !"_AP_W2", metadata !72, i64 2, null, i32 0, i32 0} ; [ DW_TAG_template_value_parameter ]
!1054 = metadata !{i32 786478, i32 0, metadata !1031, metadata !"ap_int_base<2, false>", metadata !"ap_int_base<2, false>", metadata !"", metadata !56, i32 1453, metadata !1055, i1 false, i1 false, i32 0, i32 0, null, i32 256, i1 false, null, metadata !1052, i32 0, metadata !68, i32 1453} ; [ DW_TAG_subprogram ]
!1055 = metadata !{i32 786453, i32 0, metadata !"", i32 0, i32 0, i64 0, i64 0, i64 0, i32 0, null, metadata !1056, i32 0, i32 0} ; [ DW_TAG_subroutine_type ]
!1056 = metadata !{null, metadata !1046, metadata !1057}
!1057 = metadata !{i32 786448, null, null, null, i32 0, i64 0, i64 0, i64 0, i32 0, metadata !1058} ; [ DW_TAG_reference_type ]
!1058 = metadata !{i32 786470, null, metadata !"", null, i32 0, i64 0, i64 0, i64 0, i32 0, metadata !1059} ; [ DW_TAG_const_type ]
!1059 = metadata !{i32 786485, null, metadata !"", null, i32 0, i64 0, i64 0, i64 0, i32 0, metadata !1031} ; [ DW_TAG_volatile_type ]
!1060 = metadata !{i32 786478, i32 0, metadata !1031, metadata !"ap_int_base", metadata !"ap_int_base", metadata !"", metadata !56, i32 1460, metadata !1061, i1 false, i1 false, i32 0, i32 0, null, i32 384, i1 false, null, null, i32 0, metadata !68, i32 1460} ; [ DW_TAG_subprogram ]
!1061 = metadata !{i32 786453, i32 0, metadata !"", i32 0, i32 0, i64 0, i64 0, i64 0, i32 0, null, metadata !1062, i32 0, i32 0} ; [ DW_TAG_subroutine_type ]
!1062 = metadata !{null, metadata !1046, metadata !74}
!1063 = metadata !{i32 786478, i32 0, metadata !1031, metadata !"ap_int_base", metadata !"ap_int_base", metadata !"", metadata !56, i32 1461, metadata !1064, i1 false, i1 false, i32 0, i32 0, null, i32 384, i1 false, null, null, i32 0, metadata !68, i32 1461} ; [ DW_TAG_subprogram ]
!1064 = metadata !{i32 786453, i32 0, metadata !"", i32 0, i32 0, i64 0, i64 0, i64 0, i32 0, null, metadata !1065, i32 0, i32 0} ; [ DW_TAG_subroutine_type ]
!1065 = metadata !{null, metadata !1046, metadata !99}
!1066 = metadata !{i32 786478, i32 0, metadata !1031, metadata !"ap_int_base", metadata !"ap_int_base", metadata !"", metadata !56, i32 1462, metadata !1067, i1 false, i1 false, i32 0, i32 0, null, i32 384, i1 false, null, null, i32 0, metadata !68, i32 1462} ; [ DW_TAG_subprogram ]
!1067 = metadata !{i32 786453, i32 0, metadata !"", i32 0, i32 0, i64 0, i64 0, i64 0, i32 0, null, metadata !1068, i32 0, i32 0} ; [ DW_TAG_subroutine_type ]
!1068 = metadata !{null, metadata !1046, metadata !103}
!1069 = metadata !{i32 786478, i32 0, metadata !1031, metadata !"ap_int_base", metadata !"ap_int_base", metadata !"", metadata !56, i32 1463, metadata !1070, i1 false, i1 false, i32 0, i32 0, null, i32 384, i1 false, null, null, i32 0, metadata !68, i32 1463} ; [ DW_TAG_subprogram ]
!1070 = metadata !{i32 786453, i32 0, metadata !"", i32 0, i32 0, i64 0, i64 0, i64 0, i32 0, null, metadata !1071, i32 0, i32 0} ; [ DW_TAG_subroutine_type ]
!1071 = metadata !{null, metadata !1046, metadata !107}
!1072 = metadata !{i32 786478, i32 0, metadata !1031, metadata !"ap_int_base", metadata !"ap_int_base", metadata !"", metadata !56, i32 1464, metadata !1073, i1 false, i1 false, i32 0, i32 0, null, i32 384, i1 false, null, null, i32 0, metadata !68, i32 1464} ; [ DW_TAG_subprogram ]
!1073 = metadata !{i32 786453, i32 0, metadata !"", i32 0, i32 0, i64 0, i64 0, i64 0, i32 0, null, metadata !1074, i32 0, i32 0} ; [ DW_TAG_subroutine_type ]
!1074 = metadata !{null, metadata !1046, metadata !111}
!1075 = metadata !{i32 786478, i32 0, metadata !1031, metadata !"ap_int_base", metadata !"ap_int_base", metadata !"", metadata !56, i32 1465, metadata !1076, i1 false, i1 false, i32 0, i32 0, null, i32 384, i1 false, null, null, i32 0, metadata !68, i32 1465} ; [ DW_TAG_subprogram ]
!1076 = metadata !{i32 786453, i32 0, metadata !"", i32 0, i32 0, i64 0, i64 0, i64 0, i32 0, null, metadata !1077, i32 0, i32 0} ; [ DW_TAG_subroutine_type ]
!1077 = metadata !{null, metadata !1046, metadata !72}
!1078 = metadata !{i32 786478, i32 0, metadata !1031, metadata !"ap_int_base", metadata !"ap_int_base", metadata !"", metadata !56, i32 1466, metadata !1079, i1 false, i1 false, i32 0, i32 0, null, i32 384, i1 false, null, null, i32 0, metadata !68, i32 1466} ; [ DW_TAG_subprogram ]
!1079 = metadata !{i32 786453, i32 0, metadata !"", i32 0, i32 0, i64 0, i64 0, i64 0, i32 0, null, metadata !1080, i32 0, i32 0} ; [ DW_TAG_subroutine_type ]
!1080 = metadata !{null, metadata !1046, metadata !118}
!1081 = metadata !{i32 786478, i32 0, metadata !1031, metadata !"ap_int_base", metadata !"ap_int_base", metadata !"", metadata !56, i32 1467, metadata !1082, i1 false, i1 false, i32 0, i32 0, null, i32 384, i1 false, null, null, i32 0, metadata !68, i32 1467} ; [ DW_TAG_subprogram ]
!1082 = metadata !{i32 786453, i32 0, metadata !"", i32 0, i32 0, i64 0, i64 0, i64 0, i32 0, null, metadata !1083, i32 0, i32 0} ; [ DW_TAG_subroutine_type ]
!1083 = metadata !{null, metadata !1046, metadata !122}
!1084 = metadata !{i32 786478, i32 0, metadata !1031, metadata !"ap_int_base", metadata !"ap_int_base", metadata !"", metadata !56, i32 1468, metadata !1085, i1 false, i1 false, i32 0, i32 0, null, i32 384, i1 false, null, null, i32 0, metadata !68, i32 1468} ; [ DW_TAG_subprogram ]
!1085 = metadata !{i32 786453, i32 0, metadata !"", i32 0, i32 0, i64 0, i64 0, i64 0, i32 0, null, metadata !1086, i32 0, i32 0} ; [ DW_TAG_subroutine_type ]
!1086 = metadata !{null, metadata !1046, metadata !126}
!1087 = metadata !{i32 786478, i32 0, metadata !1031, metadata !"ap_int_base", metadata !"ap_int_base", metadata !"", metadata !56, i32 1469, metadata !1088, i1 false, i1 false, i32 0, i32 0, null, i32 384, i1 false, null, null, i32 0, metadata !68, i32 1469} ; [ DW_TAG_subprogram ]
!1088 = metadata !{i32 786453, i32 0, metadata !"", i32 0, i32 0, i64 0, i64 0, i64 0, i32 0, null, metadata !1089, i32 0, i32 0} ; [ DW_TAG_subroutine_type ]
!1089 = metadata !{null, metadata !1046, metadata !130}
!1090 = metadata !{i32 786478, i32 0, metadata !1031, metadata !"ap_int_base", metadata !"ap_int_base", metadata !"", metadata !56, i32 1470, metadata !1091, i1 false, i1 false, i32 0, i32 0, null, i32 384, i1 false, null, null, i32 0, metadata !68, i32 1470} ; [ DW_TAG_subprogram ]
!1091 = metadata !{i32 786453, i32 0, metadata !"", i32 0, i32 0, i64 0, i64 0, i64 0, i32 0, null, metadata !1092, i32 0, i32 0} ; [ DW_TAG_subroutine_type ]
!1092 = metadata !{null, metadata !1046, metadata !135}
!1093 = metadata !{i32 786478, i32 0, metadata !1031, metadata !"ap_int_base", metadata !"ap_int_base", metadata !"", metadata !56, i32 1471, metadata !1094, i1 false, i1 false, i32 0, i32 0, null, i32 384, i1 false, null, null, i32 0, metadata !68, i32 1471} ; [ DW_TAG_subprogram ]
!1094 = metadata !{i32 786453, i32 0, metadata !"", i32 0, i32 0, i64 0, i64 0, i64 0, i32 0, null, metadata !1095, i32 0, i32 0} ; [ DW_TAG_subroutine_type ]
!1095 = metadata !{null, metadata !1046, metadata !140}
!1096 = metadata !{i32 786478, i32 0, metadata !1031, metadata !"ap_int_base", metadata !"ap_int_base", metadata !"", metadata !56, i32 1472, metadata !1097, i1 false, i1 false, i32 0, i32 0, null, i32 384, i1 false, null, null, i32 0, metadata !68, i32 1472} ; [ DW_TAG_subprogram ]
!1097 = metadata !{i32 786453, i32 0, metadata !"", i32 0, i32 0, i64 0, i64 0, i64 0, i32 0, null, metadata !1098, i32 0, i32 0} ; [ DW_TAG_subroutine_type ]
!1098 = metadata !{null, metadata !1046, metadata !144}
!1099 = metadata !{i32 786478, i32 0, metadata !1031, metadata !"ap_int_base", metadata !"ap_int_base", metadata !"", metadata !56, i32 1499, metadata !1100, i1 false, i1 false, i32 0, i32 0, null, i32 256, i1 false, null, null, i32 0, metadata !68, i32 1499} ; [ DW_TAG_subprogram ]
!1100 = metadata !{i32 786453, i32 0, metadata !"", i32 0, i32 0, i64 0, i64 0, i64 0, i32 0, null, metadata !1101, i32 0, i32 0} ; [ DW_TAG_subroutine_type ]
!1101 = metadata !{null, metadata !1046, metadata !148}
!1102 = metadata !{i32 786478, i32 0, metadata !1031, metadata !"ap_int_base", metadata !"ap_int_base", metadata !"", metadata !56, i32 1506, metadata !1103, i1 false, i1 false, i32 0, i32 0, null, i32 256, i1 false, null, null, i32 0, metadata !68, i32 1506} ; [ DW_TAG_subprogram ]
!1103 = metadata !{i32 786453, i32 0, metadata !"", i32 0, i32 0, i64 0, i64 0, i64 0, i32 0, null, metadata !1104, i32 0, i32 0} ; [ DW_TAG_subroutine_type ]
!1104 = metadata !{null, metadata !1046, metadata !148, metadata !99}
!1105 = metadata !{i32 786478, i32 0, metadata !1031, metadata !"read", metadata !"read", metadata !"_ZNV11ap_int_baseILi2ELb0ELb1EE4readEv", metadata !56, i32 1527, metadata !1106, i1 false, i1 false, i32 0, i32 0, null, i32 256, i1 false, null, null, i32 0, metadata !68, i32 1527} ; [ DW_TAG_subprogram ]
!1106 = metadata !{i32 786453, i32 0, metadata !"", i32 0, i32 0, i64 0, i64 0, i64 0, i32 0, null, metadata !1107, i32 0, i32 0} ; [ DW_TAG_subroutine_type ]
!1107 = metadata !{metadata !1031, metadata !1108}
!1108 = metadata !{i32 786447, i32 0, metadata !"", i32 0, i32 0, i64 64, i64 64, i64 0, i32 64, metadata !1059} ; [ DW_TAG_pointer_type ]
!1109 = metadata !{i32 786478, i32 0, metadata !1031, metadata !"write", metadata !"write", metadata !"_ZNV11ap_int_baseILi2ELb0ELb1EE5writeERKS0_", metadata !56, i32 1533, metadata !1110, i1 false, i1 false, i32 0, i32 0, null, i32 256, i1 false, null, null, i32 0, metadata !68, i32 1533} ; [ DW_TAG_subprogram ]
!1110 = metadata !{i32 786453, i32 0, metadata !"", i32 0, i32 0, i64 0, i64 0, i64 0, i32 0, null, metadata !1111, i32 0, i32 0} ; [ DW_TAG_subroutine_type ]
!1111 = metadata !{null, metadata !1108, metadata !1050}
!1112 = metadata !{i32 786478, i32 0, metadata !1031, metadata !"operator=", metadata !"operator=", metadata !"_ZNV11ap_int_baseILi2ELb0ELb1EEaSERVKS0_", metadata !56, i32 1545, metadata !1113, i1 false, i1 false, i32 0, i32 0, null, i32 256, i1 false, null, null, i32 0, metadata !68, i32 1545} ; [ DW_TAG_subprogram ]
!1113 = metadata !{i32 786453, i32 0, metadata !"", i32 0, i32 0, i64 0, i64 0, i64 0, i32 0, null, metadata !1114, i32 0, i32 0} ; [ DW_TAG_subroutine_type ]
!1114 = metadata !{null, metadata !1108, metadata !1057}
!1115 = metadata !{i32 786478, i32 0, metadata !1031, metadata !"operator=", metadata !"operator=", metadata !"_ZNV11ap_int_baseILi2ELb0ELb1EEaSERKS0_", metadata !56, i32 1554, metadata !1110, i1 false, i1 false, i32 0, i32 0, null, i32 256, i1 false, null, null, i32 0, metadata !68, i32 1554} ; [ DW_TAG_subprogram ]
!1116 = metadata !{i32 786478, i32 0, metadata !1031, metadata !"operator=", metadata !"operator=", metadata !"_ZN11ap_int_baseILi2ELb0ELb1EEaSERVKS0_", metadata !56, i32 1577, metadata !1117, i1 false, i1 false, i32 0, i32 0, null, i32 256, i1 false, null, null, i32 0, metadata !68, i32 1577} ; [ DW_TAG_subprogram ]
!1117 = metadata !{i32 786453, i32 0, metadata !"", i32 0, i32 0, i64 0, i64 0, i64 0, i32 0, null, metadata !1118, i32 0, i32 0} ; [ DW_TAG_subroutine_type ]
!1118 = metadata !{metadata !1119, metadata !1046, metadata !1057}
!1119 = metadata !{i32 786448, null, null, null, i32 0, i64 0, i64 0, i64 0, i32 0, metadata !1031} ; [ DW_TAG_reference_type ]
!1120 = metadata !{i32 786478, i32 0, metadata !1031, metadata !"operator=", metadata !"operator=", metadata !"_ZN11ap_int_baseILi2ELb0ELb1EEaSERKS0_", metadata !56, i32 1582, metadata !1121, i1 false, i1 false, i32 0, i32 0, null, i32 256, i1 false, null, null, i32 0, metadata !68, i32 1582} ; [ DW_TAG_subprogram ]
!1121 = metadata !{i32 786453, i32 0, metadata !"", i32 0, i32 0, i64 0, i64 0, i64 0, i32 0, null, metadata !1122, i32 0, i32 0} ; [ DW_TAG_subroutine_type ]
!1122 = metadata !{metadata !1119, metadata !1046, metadata !1050}
!1123 = metadata !{i32 786478, i32 0, metadata !1031, metadata !"operator=", metadata !"operator=", metadata !"_ZN11ap_int_baseILi2ELb0ELb1EEaSEPKc", metadata !56, i32 1586, metadata !1124, i1 false, i1 false, i32 0, i32 0, null, i32 256, i1 false, null, null, i32 0, metadata !68, i32 1586} ; [ DW_TAG_subprogram ]
!1124 = metadata !{i32 786453, i32 0, metadata !"", i32 0, i32 0, i64 0, i64 0, i64 0, i32 0, null, metadata !1125, i32 0, i32 0} ; [ DW_TAG_subroutine_type ]
!1125 = metadata !{metadata !1119, metadata !1046, metadata !148}
!1126 = metadata !{i32 786478, i32 0, metadata !1031, metadata !"set", metadata !"set", metadata !"_ZN11ap_int_baseILi2ELb0ELb1EE3setEPKca", metadata !56, i32 1594, metadata !1127, i1 false, i1 false, i32 0, i32 0, null, i32 256, i1 false, null, null, i32 0, metadata !68, i32 1594} ; [ DW_TAG_subprogram ]
!1127 = metadata !{i32 786453, i32 0, metadata !"", i32 0, i32 0, i64 0, i64 0, i64 0, i32 0, null, metadata !1128, i32 0, i32 0} ; [ DW_TAG_subroutine_type ]
!1128 = metadata !{metadata !1119, metadata !1046, metadata !148, metadata !99}
!1129 = metadata !{i32 786478, i32 0, metadata !1031, metadata !"operator=", metadata !"operator=", metadata !"_ZN11ap_int_baseILi2ELb0ELb1EEaSEa", metadata !56, i32 1608, metadata !1130, i1 false, i1 false, i32 0, i32 0, null, i32 256, i1 false, null, null, i32 0, metadata !68, i32 1608} ; [ DW_TAG_subprogram ]
!1130 = metadata !{i32 786453, i32 0, metadata !"", i32 0, i32 0, i64 0, i64 0, i64 0, i32 0, null, metadata !1131, i32 0, i32 0} ; [ DW_TAG_subroutine_type ]
!1131 = metadata !{metadata !1119, metadata !1046, metadata !99}
!1132 = metadata !{i32 786478, i32 0, metadata !1031, metadata !"operator=", metadata !"operator=", metadata !"_ZN11ap_int_baseILi2ELb0ELb1EEaSEh", metadata !56, i32 1609, metadata !1133, i1 false, i1 false, i32 0, i32 0, null, i32 256, i1 false, null, null, i32 0, metadata !68, i32 1609} ; [ DW_TAG_subprogram ]
!1133 = metadata !{i32 786453, i32 0, metadata !"", i32 0, i32 0, i64 0, i64 0, i64 0, i32 0, null, metadata !1134, i32 0, i32 0} ; [ DW_TAG_subroutine_type ]
!1134 = metadata !{metadata !1119, metadata !1046, metadata !103}
!1135 = metadata !{i32 786478, i32 0, metadata !1031, metadata !"operator=", metadata !"operator=", metadata !"_ZN11ap_int_baseILi2ELb0ELb1EEaSEs", metadata !56, i32 1610, metadata !1136, i1 false, i1 false, i32 0, i32 0, null, i32 256, i1 false, null, null, i32 0, metadata !68, i32 1610} ; [ DW_TAG_subprogram ]
!1136 = metadata !{i32 786453, i32 0, metadata !"", i32 0, i32 0, i64 0, i64 0, i64 0, i32 0, null, metadata !1137, i32 0, i32 0} ; [ DW_TAG_subroutine_type ]
!1137 = metadata !{metadata !1119, metadata !1046, metadata !107}
!1138 = metadata !{i32 786478, i32 0, metadata !1031, metadata !"operator=", metadata !"operator=", metadata !"_ZN11ap_int_baseILi2ELb0ELb1EEaSEt", metadata !56, i32 1611, metadata !1139, i1 false, i1 false, i32 0, i32 0, null, i32 256, i1 false, null, null, i32 0, metadata !68, i32 1611} ; [ DW_TAG_subprogram ]
!1139 = metadata !{i32 786453, i32 0, metadata !"", i32 0, i32 0, i64 0, i64 0, i64 0, i32 0, null, metadata !1140, i32 0, i32 0} ; [ DW_TAG_subroutine_type ]
!1140 = metadata !{metadata !1119, metadata !1046, metadata !111}
!1141 = metadata !{i32 786478, i32 0, metadata !1031, metadata !"operator=", metadata !"operator=", metadata !"_ZN11ap_int_baseILi2ELb0ELb1EEaSEi", metadata !56, i32 1612, metadata !1142, i1 false, i1 false, i32 0, i32 0, null, i32 256, i1 false, null, null, i32 0, metadata !68, i32 1612} ; [ DW_TAG_subprogram ]
!1142 = metadata !{i32 786453, i32 0, metadata !"", i32 0, i32 0, i64 0, i64 0, i64 0, i32 0, null, metadata !1143, i32 0, i32 0} ; [ DW_TAG_subroutine_type ]
!1143 = metadata !{metadata !1119, metadata !1046, metadata !72}
!1144 = metadata !{i32 786478, i32 0, metadata !1031, metadata !"operator=", metadata !"operator=", metadata !"_ZN11ap_int_baseILi2ELb0ELb1EEaSEj", metadata !56, i32 1613, metadata !1145, i1 false, i1 false, i32 0, i32 0, null, i32 256, i1 false, null, null, i32 0, metadata !68, i32 1613} ; [ DW_TAG_subprogram ]
!1145 = metadata !{i32 786453, i32 0, metadata !"", i32 0, i32 0, i64 0, i64 0, i64 0, i32 0, null, metadata !1146, i32 0, i32 0} ; [ DW_TAG_subroutine_type ]
!1146 = metadata !{metadata !1119, metadata !1046, metadata !118}
!1147 = metadata !{i32 786478, i32 0, metadata !1031, metadata !"operator=", metadata !"operator=", metadata !"_ZN11ap_int_baseILi2ELb0ELb1EEaSEx", metadata !56, i32 1614, metadata !1148, i1 false, i1 false, i32 0, i32 0, null, i32 256, i1 false, null, null, i32 0, metadata !68, i32 1614} ; [ DW_TAG_subprogram ]
!1148 = metadata !{i32 786453, i32 0, metadata !"", i32 0, i32 0, i64 0, i64 0, i64 0, i32 0, null, metadata !1149, i32 0, i32 0} ; [ DW_TAG_subroutine_type ]
!1149 = metadata !{metadata !1119, metadata !1046, metadata !130}
!1150 = metadata !{i32 786478, i32 0, metadata !1031, metadata !"operator=", metadata !"operator=", metadata !"_ZN11ap_int_baseILi2ELb0ELb1EEaSEy", metadata !56, i32 1615, metadata !1151, i1 false, i1 false, i32 0, i32 0, null, i32 256, i1 false, null, null, i32 0, metadata !68, i32 1615} ; [ DW_TAG_subprogram ]
!1151 = metadata !{i32 786453, i32 0, metadata !"", i32 0, i32 0, i64 0, i64 0, i64 0, i32 0, null, metadata !1152, i32 0, i32 0} ; [ DW_TAG_subroutine_type ]
!1152 = metadata !{metadata !1119, metadata !1046, metadata !135}
!1153 = metadata !{i32 786478, i32 0, metadata !1031, metadata !"operator unsigned char", metadata !"operator unsigned char", metadata !"_ZNK11ap_int_baseILi2ELb0ELb1EEcvhEv", metadata !56, i32 1653, metadata !1154, i1 false, i1 false, i32 0, i32 0, null, i32 256, i1 false, null, null, i32 0, metadata !68, i32 1653} ; [ DW_TAG_subprogram ]
!1154 = metadata !{i32 786453, i32 0, metadata !"", i32 0, i32 0, i64 0, i64 0, i64 0, i32 0, null, metadata !1155, i32 0, i32 0} ; [ DW_TAG_subroutine_type ]
!1155 = metadata !{metadata !1156, metadata !1157}
!1156 = metadata !{i32 786454, metadata !1031, metadata !"RetType", metadata !56, i32 1402, i64 0, i64 0, i64 0, i32 0, metadata !547} ; [ DW_TAG_typedef ]
!1157 = metadata !{i32 786447, i32 0, metadata !"", i32 0, i32 0, i64 64, i64 64, i64 0, i32 64, metadata !1051} ; [ DW_TAG_pointer_type ]
!1158 = metadata !{i32 786478, i32 0, metadata !1031, metadata !"to_bool", metadata !"to_bool", metadata !"_ZNK11ap_int_baseILi2ELb0ELb1EE7to_boolEv", metadata !56, i32 1659, metadata !1159, i1 false, i1 false, i32 0, i32 0, null, i32 256, i1 false, null, null, i32 0, metadata !68, i32 1659} ; [ DW_TAG_subprogram ]
!1159 = metadata !{i32 786453, i32 0, metadata !"", i32 0, i32 0, i64 0, i64 0, i64 0, i32 0, null, metadata !1160, i32 0, i32 0} ; [ DW_TAG_subroutine_type ]
!1160 = metadata !{metadata !74, metadata !1157}
!1161 = metadata !{i32 786478, i32 0, metadata !1031, metadata !"to_uchar", metadata !"to_uchar", metadata !"_ZNK11ap_int_baseILi2ELb0ELb1EE8to_ucharEv", metadata !56, i32 1660, metadata !1162, i1 false, i1 false, i32 0, i32 0, null, i32 256, i1 false, null, null, i32 0, metadata !68, i32 1660} ; [ DW_TAG_subprogram ]
!1162 = metadata !{i32 786453, i32 0, metadata !"", i32 0, i32 0, i64 0, i64 0, i64 0, i32 0, null, metadata !1163, i32 0, i32 0} ; [ DW_TAG_subroutine_type ]
!1163 = metadata !{metadata !103, metadata !1157}
!1164 = metadata !{i32 786478, i32 0, metadata !1031, metadata !"to_char", metadata !"to_char", metadata !"_ZNK11ap_int_baseILi2ELb0ELb1EE7to_charEv", metadata !56, i32 1661, metadata !1165, i1 false, i1 false, i32 0, i32 0, null, i32 256, i1 false, null, null, i32 0, metadata !68, i32 1661} ; [ DW_TAG_subprogram ]
!1165 = metadata !{i32 786453, i32 0, metadata !"", i32 0, i32 0, i64 0, i64 0, i64 0, i32 0, null, metadata !1166, i32 0, i32 0} ; [ DW_TAG_subroutine_type ]
!1166 = metadata !{metadata !99, metadata !1157}
!1167 = metadata !{i32 786478, i32 0, metadata !1031, metadata !"to_ushort", metadata !"to_ushort", metadata !"_ZNK11ap_int_baseILi2ELb0ELb1EE9to_ushortEv", metadata !56, i32 1662, metadata !1168, i1 false, i1 false, i32 0, i32 0, null, i32 256, i1 false, null, null, i32 0, metadata !68, i32 1662} ; [ DW_TAG_subprogram ]
!1168 = metadata !{i32 786453, i32 0, metadata !"", i32 0, i32 0, i64 0, i64 0, i64 0, i32 0, null, metadata !1169, i32 0, i32 0} ; [ DW_TAG_subroutine_type ]
!1169 = metadata !{metadata !111, metadata !1157}
!1170 = metadata !{i32 786478, i32 0, metadata !1031, metadata !"to_short", metadata !"to_short", metadata !"_ZNK11ap_int_baseILi2ELb0ELb1EE8to_shortEv", metadata !56, i32 1663, metadata !1171, i1 false, i1 false, i32 0, i32 0, null, i32 256, i1 false, null, null, i32 0, metadata !68, i32 1663} ; [ DW_TAG_subprogram ]
!1171 = metadata !{i32 786453, i32 0, metadata !"", i32 0, i32 0, i64 0, i64 0, i64 0, i32 0, null, metadata !1172, i32 0, i32 0} ; [ DW_TAG_subroutine_type ]
!1172 = metadata !{metadata !107, metadata !1157}
!1173 = metadata !{i32 786478, i32 0, metadata !1031, metadata !"to_int", metadata !"to_int", metadata !"_ZNK11ap_int_baseILi2ELb0ELb1EE6to_intEv", metadata !56, i32 1664, metadata !1174, i1 false, i1 false, i32 0, i32 0, null, i32 256, i1 false, null, null, i32 0, metadata !68, i32 1664} ; [ DW_TAG_subprogram ]
!1174 = metadata !{i32 786453, i32 0, metadata !"", i32 0, i32 0, i64 0, i64 0, i64 0, i32 0, null, metadata !1175, i32 0, i32 0} ; [ DW_TAG_subroutine_type ]
!1175 = metadata !{metadata !72, metadata !1157}
!1176 = metadata !{i32 786478, i32 0, metadata !1031, metadata !"to_uint", metadata !"to_uint", metadata !"_ZNK11ap_int_baseILi2ELb0ELb1EE7to_uintEv", metadata !56, i32 1665, metadata !1177, i1 false, i1 false, i32 0, i32 0, null, i32 256, i1 false, null, null, i32 0, metadata !68, i32 1665} ; [ DW_TAG_subprogram ]
!1177 = metadata !{i32 786453, i32 0, metadata !"", i32 0, i32 0, i64 0, i64 0, i64 0, i32 0, null, metadata !1178, i32 0, i32 0} ; [ DW_TAG_subroutine_type ]
!1178 = metadata !{metadata !118, metadata !1157}
!1179 = metadata !{i32 786478, i32 0, metadata !1031, metadata !"to_long", metadata !"to_long", metadata !"_ZNK11ap_int_baseILi2ELb0ELb1EE7to_longEv", metadata !56, i32 1666, metadata !1180, i1 false, i1 false, i32 0, i32 0, null, i32 256, i1 false, null, null, i32 0, metadata !68, i32 1666} ; [ DW_TAG_subprogram ]
!1180 = metadata !{i32 786453, i32 0, metadata !"", i32 0, i32 0, i64 0, i64 0, i64 0, i32 0, null, metadata !1181, i32 0, i32 0} ; [ DW_TAG_subroutine_type ]
!1181 = metadata !{metadata !122, metadata !1157}
!1182 = metadata !{i32 786478, i32 0, metadata !1031, metadata !"to_ulong", metadata !"to_ulong", metadata !"_ZNK11ap_int_baseILi2ELb0ELb1EE8to_ulongEv", metadata !56, i32 1667, metadata !1183, i1 false, i1 false, i32 0, i32 0, null, i32 256, i1 false, null, null, i32 0, metadata !68, i32 1667} ; [ DW_TAG_subprogram ]
!1183 = metadata !{i32 786453, i32 0, metadata !"", i32 0, i32 0, i64 0, i64 0, i64 0, i32 0, null, metadata !1184, i32 0, i32 0} ; [ DW_TAG_subroutine_type ]
!1184 = metadata !{metadata !126, metadata !1157}
!1185 = metadata !{i32 786478, i32 0, metadata !1031, metadata !"to_int64", metadata !"to_int64", metadata !"_ZNK11ap_int_baseILi2ELb0ELb1EE8to_int64Ev", metadata !56, i32 1668, metadata !1186, i1 false, i1 false, i32 0, i32 0, null, i32 256, i1 false, null, null, i32 0, metadata !68, i32 1668} ; [ DW_TAG_subprogram ]
!1186 = metadata !{i32 786453, i32 0, metadata !"", i32 0, i32 0, i64 0, i64 0, i64 0, i32 0, null, metadata !1187, i32 0, i32 0} ; [ DW_TAG_subroutine_type ]
!1187 = metadata !{metadata !130, metadata !1157}
!1188 = metadata !{i32 786478, i32 0, metadata !1031, metadata !"to_uint64", metadata !"to_uint64", metadata !"_ZNK11ap_int_baseILi2ELb0ELb1EE9to_uint64Ev", metadata !56, i32 1669, metadata !1189, i1 false, i1 false, i32 0, i32 0, null, i32 256, i1 false, null, null, i32 0, metadata !68, i32 1669} ; [ DW_TAG_subprogram ]
!1189 = metadata !{i32 786453, i32 0, metadata !"", i32 0, i32 0, i64 0, i64 0, i64 0, i32 0, null, metadata !1190, i32 0, i32 0} ; [ DW_TAG_subroutine_type ]
!1190 = metadata !{metadata !135, metadata !1157}
!1191 = metadata !{i32 786478, i32 0, metadata !1031, metadata !"to_double", metadata !"to_double", metadata !"_ZNK11ap_int_baseILi2ELb0ELb1EE9to_doubleEv", metadata !56, i32 1670, metadata !1192, i1 false, i1 false, i32 0, i32 0, null, i32 256, i1 false, null, null, i32 0, metadata !68, i32 1670} ; [ DW_TAG_subprogram ]
!1192 = metadata !{i32 786453, i32 0, metadata !"", i32 0, i32 0, i64 0, i64 0, i64 0, i32 0, null, metadata !1193, i32 0, i32 0} ; [ DW_TAG_subroutine_type ]
!1193 = metadata !{metadata !144, metadata !1157}
!1194 = metadata !{i32 786478, i32 0, metadata !1031, metadata !"length", metadata !"length", metadata !"_ZNK11ap_int_baseILi2ELb0ELb1EE6lengthEv", metadata !56, i32 1684, metadata !1174, i1 false, i1 false, i32 0, i32 0, null, i32 256, i1 false, null, null, i32 0, metadata !68, i32 1684} ; [ DW_TAG_subprogram ]
!1195 = metadata !{i32 786478, i32 0, metadata !1031, metadata !"length", metadata !"length", metadata !"_ZNVK11ap_int_baseILi2ELb0ELb1EE6lengthEv", metadata !56, i32 1685, metadata !1196, i1 false, i1 false, i32 0, i32 0, null, i32 256, i1 false, null, null, i32 0, metadata !68, i32 1685} ; [ DW_TAG_subprogram ]
!1196 = metadata !{i32 786453, i32 0, metadata !"", i32 0, i32 0, i64 0, i64 0, i64 0, i32 0, null, metadata !1197, i32 0, i32 0} ; [ DW_TAG_subroutine_type ]
!1197 = metadata !{metadata !72, metadata !1198}
!1198 = metadata !{i32 786447, i32 0, metadata !"", i32 0, i32 0, i64 64, i64 64, i64 0, i32 64, metadata !1058} ; [ DW_TAG_pointer_type ]
!1199 = metadata !{i32 786478, i32 0, metadata !1031, metadata !"reverse", metadata !"reverse", metadata !"_ZN11ap_int_baseILi2ELb0ELb1EE7reverseEv", metadata !56, i32 1690, metadata !1200, i1 false, i1 false, i32 0, i32 0, null, i32 256, i1 false, null, null, i32 0, metadata !68, i32 1690} ; [ DW_TAG_subprogram ]
!1200 = metadata !{i32 786453, i32 0, metadata !"", i32 0, i32 0, i64 0, i64 0, i64 0, i32 0, null, metadata !1201, i32 0, i32 0} ; [ DW_TAG_subroutine_type ]
!1201 = metadata !{metadata !1119, metadata !1046}
!1202 = metadata !{i32 786478, i32 0, metadata !1031, metadata !"iszero", metadata !"iszero", metadata !"_ZNK11ap_int_baseILi2ELb0ELb1EE6iszeroEv", metadata !56, i32 1696, metadata !1159, i1 false, i1 false, i32 0, i32 0, null, i32 256, i1 false, null, null, i32 0, metadata !68, i32 1696} ; [ DW_TAG_subprogram ]
!1203 = metadata !{i32 786478, i32 0, metadata !1031, metadata !"is_zero", metadata !"is_zero", metadata !"_ZNK11ap_int_baseILi2ELb0ELb1EE7is_zeroEv", metadata !56, i32 1701, metadata !1159, i1 false, i1 false, i32 0, i32 0, null, i32 256, i1 false, null, null, i32 0, metadata !68, i32 1701} ; [ DW_TAG_subprogram ]
!1204 = metadata !{i32 786478, i32 0, metadata !1031, metadata !"sign", metadata !"sign", metadata !"_ZNK11ap_int_baseILi2ELb0ELb1EE4signEv", metadata !56, i32 1706, metadata !1159, i1 false, i1 false, i32 0, i32 0, null, i32 256, i1 false, null, null, i32 0, metadata !68, i32 1706} ; [ DW_TAG_subprogram ]
!1205 = metadata !{i32 786478, i32 0, metadata !1031, metadata !"clear", metadata !"clear", metadata !"_ZN11ap_int_baseILi2ELb0ELb1EE5clearEi", metadata !56, i32 1714, metadata !1076, i1 false, i1 false, i32 0, i32 0, null, i32 256, i1 false, null, null, i32 0, metadata !68, i32 1714} ; [ DW_TAG_subprogram ]
!1206 = metadata !{i32 786478, i32 0, metadata !1031, metadata !"invert", metadata !"invert", metadata !"_ZN11ap_int_baseILi2ELb0ELb1EE6invertEi", metadata !56, i32 1720, metadata !1076, i1 false, i1 false, i32 0, i32 0, null, i32 256, i1 false, null, null, i32 0, metadata !68, i32 1720} ; [ DW_TAG_subprogram ]
!1207 = metadata !{i32 786478, i32 0, metadata !1031, metadata !"test", metadata !"test", metadata !"_ZNK11ap_int_baseILi2ELb0ELb1EE4testEi", metadata !56, i32 1728, metadata !1208, i1 false, i1 false, i32 0, i32 0, null, i32 256, i1 false, null, null, i32 0, metadata !68, i32 1728} ; [ DW_TAG_subprogram ]
!1208 = metadata !{i32 786453, i32 0, metadata !"", i32 0, i32 0, i64 0, i64 0, i64 0, i32 0, null, metadata !1209, i32 0, i32 0} ; [ DW_TAG_subroutine_type ]
!1209 = metadata !{metadata !74, metadata !1157, metadata !72}
!1210 = metadata !{i32 786478, i32 0, metadata !1031, metadata !"set", metadata !"set", metadata !"_ZN11ap_int_baseILi2ELb0ELb1EE3setEi", metadata !56, i32 1734, metadata !1076, i1 false, i1 false, i32 0, i32 0, null, i32 256, i1 false, null, null, i32 0, metadata !68, i32 1734} ; [ DW_TAG_subprogram ]
!1211 = metadata !{i32 786478, i32 0, metadata !1031, metadata !"set", metadata !"set", metadata !"_ZN11ap_int_baseILi2ELb0ELb1EE3setEib", metadata !56, i32 1740, metadata !1212, i1 false, i1 false, i32 0, i32 0, null, i32 256, i1 false, null, null, i32 0, metadata !68, i32 1740} ; [ DW_TAG_subprogram ]
!1212 = metadata !{i32 786453, i32 0, metadata !"", i32 0, i32 0, i64 0, i64 0, i64 0, i32 0, null, metadata !1213, i32 0, i32 0} ; [ DW_TAG_subroutine_type ]
!1213 = metadata !{null, metadata !1046, metadata !72, metadata !74}
!1214 = metadata !{i32 786478, i32 0, metadata !1031, metadata !"lrotate", metadata !"lrotate", metadata !"_ZN11ap_int_baseILi2ELb0ELb1EE7lrotateEi", metadata !56, i32 1747, metadata !1076, i1 false, i1 false, i32 0, i32 0, null, i32 256, i1 false, null, null, i32 0, metadata !68, i32 1747} ; [ DW_TAG_subprogram ]
!1215 = metadata !{i32 786478, i32 0, metadata !1031, metadata !"rrotate", metadata !"rrotate", metadata !"_ZN11ap_int_baseILi2ELb0ELb1EE7rrotateEi", metadata !56, i32 1756, metadata !1076, i1 false, i1 false, i32 0, i32 0, null, i32 256, i1 false, null, null, i32 0, metadata !68, i32 1756} ; [ DW_TAG_subprogram ]
!1216 = metadata !{i32 786478, i32 0, metadata !1031, metadata !"set_bit", metadata !"set_bit", metadata !"_ZN11ap_int_baseILi2ELb0ELb1EE7set_bitEib", metadata !56, i32 1764, metadata !1212, i1 false, i1 false, i32 0, i32 0, null, i32 256, i1 false, null, null, i32 0, metadata !68, i32 1764} ; [ DW_TAG_subprogram ]
!1217 = metadata !{i32 786478, i32 0, metadata !1031, metadata !"get_bit", metadata !"get_bit", metadata !"_ZNK11ap_int_baseILi2ELb0ELb1EE7get_bitEi", metadata !56, i32 1769, metadata !1208, i1 false, i1 false, i32 0, i32 0, null, i32 256, i1 false, null, null, i32 0, metadata !68, i32 1769} ; [ DW_TAG_subprogram ]
!1218 = metadata !{i32 786478, i32 0, metadata !1031, metadata !"b_not", metadata !"b_not", metadata !"_ZN11ap_int_baseILi2ELb0ELb1EE5b_notEv", metadata !56, i32 1774, metadata !1044, i1 false, i1 false, i32 0, i32 0, null, i32 256, i1 false, null, null, i32 0, metadata !68, i32 1774} ; [ DW_TAG_subprogram ]
!1219 = metadata !{i32 786478, i32 0, metadata !1031, metadata !"countLeadingZeros", metadata !"countLeadingZeros", metadata !"_ZN11ap_int_baseILi2ELb0ELb1EE17countLeadingZerosEv", metadata !56, i32 1781, metadata !1220, i1 false, i1 false, i32 0, i32 0, null, i32 256, i1 false, null, null, i32 0, metadata !68, i32 1781} ; [ DW_TAG_subprogram ]
!1220 = metadata !{i32 786453, i32 0, metadata !"", i32 0, i32 0, i64 0, i64 0, i64 0, i32 0, null, metadata !1221, i32 0, i32 0} ; [ DW_TAG_subroutine_type ]
!1221 = metadata !{metadata !72, metadata !1046}
!1222 = metadata !{i32 786478, i32 0, metadata !1031, metadata !"operator++", metadata !"operator++", metadata !"_ZN11ap_int_baseILi2ELb0ELb1EEppEv", metadata !56, i32 1838, metadata !1200, i1 false, i1 false, i32 0, i32 0, null, i32 256, i1 false, null, null, i32 0, metadata !68, i32 1838} ; [ DW_TAG_subprogram ]
!1223 = metadata !{i32 786478, i32 0, metadata !1031, metadata !"operator--", metadata !"operator--", metadata !"_ZN11ap_int_baseILi2ELb0ELb1EEmmEv", metadata !56, i32 1842, metadata !1200, i1 false, i1 false, i32 0, i32 0, null, i32 256, i1 false, null, null, i32 0, metadata !68, i32 1842} ; [ DW_TAG_subprogram ]
!1224 = metadata !{i32 786478, i32 0, metadata !1031, metadata !"operator++", metadata !"operator++", metadata !"_ZN11ap_int_baseILi2ELb0ELb1EEppEi", metadata !56, i32 1850, metadata !1225, i1 false, i1 false, i32 0, i32 0, null, i32 256, i1 false, null, null, i32 0, metadata !68, i32 1850} ; [ DW_TAG_subprogram ]
!1225 = metadata !{i32 786453, i32 0, metadata !"", i32 0, i32 0, i64 0, i64 0, i64 0, i32 0, null, metadata !1226, i32 0, i32 0} ; [ DW_TAG_subroutine_type ]
!1226 = metadata !{metadata !1051, metadata !1046, metadata !72}
!1227 = metadata !{i32 786478, i32 0, metadata !1031, metadata !"operator--", metadata !"operator--", metadata !"_ZN11ap_int_baseILi2ELb0ELb1EEmmEi", metadata !56, i32 1855, metadata !1225, i1 false, i1 false, i32 0, i32 0, null, i32 256, i1 false, null, null, i32 0, metadata !68, i32 1855} ; [ DW_TAG_subprogram ]
!1228 = metadata !{i32 786478, i32 0, metadata !1031, metadata !"operator+", metadata !"operator+", metadata !"_ZNK11ap_int_baseILi2ELb0ELb1EEpsEv", metadata !56, i32 1864, metadata !1229, i1 false, i1 false, i32 0, i32 0, null, i32 256, i1 false, null, null, i32 0, metadata !68, i32 1864} ; [ DW_TAG_subprogram ]
!1229 = metadata !{i32 786453, i32 0, metadata !"", i32 0, i32 0, i64 0, i64 0, i64 0, i32 0, null, metadata !1230, i32 0, i32 0} ; [ DW_TAG_subroutine_type ]
!1230 = metadata !{metadata !1031, metadata !1157}
!1231 = metadata !{i32 786478, i32 0, metadata !1031, metadata !"operator!", metadata !"operator!", metadata !"_ZNK11ap_int_baseILi2ELb0ELb1EEntEv", metadata !56, i32 1870, metadata !1159, i1 false, i1 false, i32 0, i32 0, null, i32 256, i1 false, null, null, i32 0, metadata !68, i32 1870} ; [ DW_TAG_subprogram ]
!1232 = metadata !{i32 786478, i32 0, metadata !1031, metadata !"operator-", metadata !"operator-", metadata !"_ZNK11ap_int_baseILi2ELb0ELb1EEngEv", metadata !56, i32 1875, metadata !1233, i1 false, i1 false, i32 0, i32 0, null, i32 256, i1 false, null, null, i32 0, metadata !68, i32 1875} ; [ DW_TAG_subprogram ]
!1233 = metadata !{i32 786453, i32 0, metadata !"", i32 0, i32 0, i64 0, i64 0, i64 0, i32 0, null, metadata !1234, i32 0, i32 0} ; [ DW_TAG_subroutine_type ]
!1234 = metadata !{metadata !1235, metadata !1157}
!1235 = metadata !{i32 786434, null, metadata !"ap_int_base<3, true, true>", metadata !56, i32 650, i32 0, i32 0, i32 0, i32 4, null, null, i32 0} ; [ DW_TAG_class_type ]
!1236 = metadata !{i32 786478, i32 0, metadata !1031, metadata !"range", metadata !"range", metadata !"_ZN11ap_int_baseILi2ELb0ELb1EE5rangeEii", metadata !56, i32 2005, metadata !1237, i1 false, i1 false, i32 0, i32 0, null, i32 256, i1 false, null, null, i32 0, metadata !68, i32 2005} ; [ DW_TAG_subprogram ]
!1237 = metadata !{i32 786453, i32 0, metadata !"", i32 0, i32 0, i64 0, i64 0, i64 0, i32 0, null, metadata !1238, i32 0, i32 0} ; [ DW_TAG_subroutine_type ]
!1238 = metadata !{metadata !1239, metadata !1046, metadata !72, metadata !72}
!1239 = metadata !{i32 786434, null, metadata !"ap_range_ref<2, false>", metadata !56, i32 923, i32 0, i32 0, i32 0, i32 4, null, null, i32 0} ; [ DW_TAG_class_type ]
!1240 = metadata !{i32 786478, i32 0, metadata !1031, metadata !"operator()", metadata !"operator()", metadata !"_ZN11ap_int_baseILi2ELb0ELb1EEclEii", metadata !56, i32 2011, metadata !1237, i1 false, i1 false, i32 0, i32 0, null, i32 256, i1 false, null, null, i32 0, metadata !68, i32 2011} ; [ DW_TAG_subprogram ]
!1241 = metadata !{i32 786478, i32 0, metadata !1031, metadata !"range", metadata !"range", metadata !"_ZNK11ap_int_baseILi2ELb0ELb1EE5rangeEii", metadata !56, i32 2017, metadata !1242, i1 false, i1 false, i32 0, i32 0, null, i32 256, i1 false, null, null, i32 0, metadata !68, i32 2017} ; [ DW_TAG_subprogram ]
!1242 = metadata !{i32 786453, i32 0, metadata !"", i32 0, i32 0, i64 0, i64 0, i64 0, i32 0, null, metadata !1243, i32 0, i32 0} ; [ DW_TAG_subroutine_type ]
!1243 = metadata !{metadata !1239, metadata !1157, metadata !72, metadata !72}
!1244 = metadata !{i32 786478, i32 0, metadata !1031, metadata !"operator()", metadata !"operator()", metadata !"_ZNK11ap_int_baseILi2ELb0ELb1EEclEii", metadata !56, i32 2023, metadata !1242, i1 false, i1 false, i32 0, i32 0, null, i32 256, i1 false, null, null, i32 0, metadata !68, i32 2023} ; [ DW_TAG_subprogram ]
!1245 = metadata !{i32 786478, i32 0, metadata !1031, metadata !"operator[]", metadata !"operator[]", metadata !"_ZN11ap_int_baseILi2ELb0ELb1EEixEi", metadata !56, i32 2042, metadata !1246, i1 false, i1 false, i32 0, i32 0, null, i32 256, i1 false, null, null, i32 0, metadata !68, i32 2042} ; [ DW_TAG_subprogram ]
!1246 = metadata !{i32 786453, i32 0, metadata !"", i32 0, i32 0, i64 0, i64 0, i64 0, i32 0, null, metadata !1247, i32 0, i32 0} ; [ DW_TAG_subroutine_type ]
!1247 = metadata !{metadata !1248, metadata !1046, metadata !72}
!1248 = metadata !{i32 786434, null, metadata !"ap_bit_ref<2, false>", metadata !56, i32 1193, i64 128, i64 64, i32 0, i32 0, null, metadata !1249, i32 0, null, metadata !1282} ; [ DW_TAG_class_type ]
!1249 = metadata !{metadata !1250, metadata !1251, metadata !1252, metadata !1258, metadata !1262, metadata !1266, metadata !1267, metadata !1271, metadata !1274, metadata !1275, metadata !1278, metadata !1279}
!1250 = metadata !{i32 786445, metadata !1248, metadata !"d_bv", metadata !56, i32 1194, i64 64, i64 64, i64 0, i32 0, metadata !1119} ; [ DW_TAG_member ]
!1251 = metadata !{i32 786445, metadata !1248, metadata !"d_index", metadata !56, i32 1195, i64 32, i64 32, i64 64, i32 0, metadata !72} ; [ DW_TAG_member ]
!1252 = metadata !{i32 786478, i32 0, metadata !1248, metadata !"ap_bit_ref", metadata !"ap_bit_ref", metadata !"", metadata !56, i32 1198, metadata !1253, i1 false, i1 false, i32 0, i32 0, null, i32 256, i1 false, null, null, i32 0, metadata !68, i32 1198} ; [ DW_TAG_subprogram ]
!1253 = metadata !{i32 786453, i32 0, metadata !"", i32 0, i32 0, i64 0, i64 0, i64 0, i32 0, null, metadata !1254, i32 0, i32 0} ; [ DW_TAG_subroutine_type ]
!1254 = metadata !{null, metadata !1255, metadata !1256}
!1255 = metadata !{i32 786447, i32 0, metadata !"", i32 0, i32 0, i64 64, i64 64, i64 0, i32 64, metadata !1248} ; [ DW_TAG_pointer_type ]
!1256 = metadata !{i32 786448, null, null, null, i32 0, i64 0, i64 0, i64 0, i32 0, metadata !1257} ; [ DW_TAG_reference_type ]
!1257 = metadata !{i32 786470, null, metadata !"", null, i32 0, i64 0, i64 0, i64 0, i32 0, metadata !1248} ; [ DW_TAG_const_type ]
!1258 = metadata !{i32 786478, i32 0, metadata !1248, metadata !"ap_bit_ref", metadata !"ap_bit_ref", metadata !"", metadata !56, i32 1201, metadata !1259, i1 false, i1 false, i32 0, i32 0, null, i32 256, i1 false, null, null, i32 0, metadata !68, i32 1201} ; [ DW_TAG_subprogram ]
!1259 = metadata !{i32 786453, i32 0, metadata !"", i32 0, i32 0, i64 0, i64 0, i64 0, i32 0, null, metadata !1260, i32 0, i32 0} ; [ DW_TAG_subroutine_type ]
!1260 = metadata !{null, metadata !1255, metadata !1261, metadata !72}
!1261 = metadata !{i32 786447, null, metadata !"", null, i32 0, i64 64, i64 64, i64 0, i32 0, metadata !1031} ; [ DW_TAG_pointer_type ]
!1262 = metadata !{i32 786478, i32 0, metadata !1248, metadata !"operator _Bool", metadata !"operator _Bool", metadata !"_ZNK10ap_bit_refILi2ELb0EEcvbEv", metadata !56, i32 1203, metadata !1263, i1 false, i1 false, i32 0, i32 0, null, i32 256, i1 false, null, null, i32 0, metadata !68, i32 1203} ; [ DW_TAG_subprogram ]
!1263 = metadata !{i32 786453, i32 0, metadata !"", i32 0, i32 0, i64 0, i64 0, i64 0, i32 0, null, metadata !1264, i32 0, i32 0} ; [ DW_TAG_subroutine_type ]
!1264 = metadata !{metadata !74, metadata !1265}
!1265 = metadata !{i32 786447, i32 0, metadata !"", i32 0, i32 0, i64 64, i64 64, i64 0, i32 64, metadata !1257} ; [ DW_TAG_pointer_type ]
!1266 = metadata !{i32 786478, i32 0, metadata !1248, metadata !"to_bool", metadata !"to_bool", metadata !"_ZNK10ap_bit_refILi2ELb0EE7to_boolEv", metadata !56, i32 1204, metadata !1263, i1 false, i1 false, i32 0, i32 0, null, i32 256, i1 false, null, null, i32 0, metadata !68, i32 1204} ; [ DW_TAG_subprogram ]
!1267 = metadata !{i32 786478, i32 0, metadata !1248, metadata !"operator=", metadata !"operator=", metadata !"_ZN10ap_bit_refILi2ELb0EEaSEy", metadata !56, i32 1206, metadata !1268, i1 false, i1 false, i32 0, i32 0, null, i32 256, i1 false, null, null, i32 0, metadata !68, i32 1206} ; [ DW_TAG_subprogram ]
!1268 = metadata !{i32 786453, i32 0, metadata !"", i32 0, i32 0, i64 0, i64 0, i64 0, i32 0, null, metadata !1269, i32 0, i32 0} ; [ DW_TAG_subroutine_type ]
!1269 = metadata !{metadata !1270, metadata !1255, metadata !136}
!1270 = metadata !{i32 786448, null, null, null, i32 0, i64 0, i64 0, i64 0, i32 0, metadata !1248} ; [ DW_TAG_reference_type ]
!1271 = metadata !{i32 786478, i32 0, metadata !1248, metadata !"operator=", metadata !"operator=", metadata !"_ZN10ap_bit_refILi2ELb0EEaSERKS0_", metadata !56, i32 1226, metadata !1272, i1 false, i1 false, i32 0, i32 0, null, i32 256, i1 false, null, null, i32 0, metadata !68, i32 1226} ; [ DW_TAG_subprogram ]
!1272 = metadata !{i32 786453, i32 0, metadata !"", i32 0, i32 0, i64 0, i64 0, i64 0, i32 0, null, metadata !1273, i32 0, i32 0} ; [ DW_TAG_subroutine_type ]
!1273 = metadata !{metadata !1270, metadata !1255, metadata !1256}
!1274 = metadata !{i32 786478, i32 0, metadata !1248, metadata !"get", metadata !"get", metadata !"_ZNK10ap_bit_refILi2ELb0EE3getEv", metadata !56, i32 1334, metadata !1263, i1 false, i1 false, i32 0, i32 0, null, i32 256, i1 false, null, null, i32 0, metadata !68, i32 1334} ; [ DW_TAG_subprogram ]
!1275 = metadata !{i32 786478, i32 0, metadata !1248, metadata !"get", metadata !"get", metadata !"_ZN10ap_bit_refILi2ELb0EE3getEv", metadata !56, i32 1338, metadata !1276, i1 false, i1 false, i32 0, i32 0, null, i32 256, i1 false, null, null, i32 0, metadata !68, i32 1338} ; [ DW_TAG_subprogram ]
!1276 = metadata !{i32 786453, i32 0, metadata !"", i32 0, i32 0, i64 0, i64 0, i64 0, i32 0, null, metadata !1277, i32 0, i32 0} ; [ DW_TAG_subroutine_type ]
!1277 = metadata !{metadata !74, metadata !1255}
!1278 = metadata !{i32 786478, i32 0, metadata !1248, metadata !"operator~", metadata !"operator~", metadata !"_ZNK10ap_bit_refILi2ELb0EEcoEv", metadata !56, i32 1347, metadata !1263, i1 false, i1 false, i32 0, i32 0, null, i32 256, i1 false, null, null, i32 0, metadata !68, i32 1347} ; [ DW_TAG_subprogram ]
!1279 = metadata !{i32 786478, i32 0, metadata !1248, metadata !"length", metadata !"length", metadata !"_ZNK10ap_bit_refILi2ELb0EE6lengthEv", metadata !56, i32 1352, metadata !1280, i1 false, i1 false, i32 0, i32 0, null, i32 256, i1 false, null, null, i32 0, metadata !68, i32 1352} ; [ DW_TAG_subprogram ]
!1280 = metadata !{i32 786453, i32 0, metadata !"", i32 0, i32 0, i64 0, i64 0, i64 0, i32 0, null, metadata !1281, i32 0, i32 0} ; [ DW_TAG_subroutine_type ]
!1281 = metadata !{metadata !72, metadata !1265}
!1282 = metadata !{metadata !1283, metadata !431}
!1283 = metadata !{i32 786480, null, metadata !"_AP_W", metadata !72, i64 2, null, i32 0, i32 0} ; [ DW_TAG_template_value_parameter ]
!1284 = metadata !{i32 786478, i32 0, metadata !1031, metadata !"operator[]", metadata !"operator[]", metadata !"_ZNK11ap_int_baseILi2ELb0ELb1EEixEi", metadata !56, i32 2056, metadata !1208, i1 false, i1 false, i32 0, i32 0, null, i32 256, i1 false, null, null, i32 0, metadata !68, i32 2056} ; [ DW_TAG_subprogram ]
!1285 = metadata !{i32 786478, i32 0, metadata !1031, metadata !"bit", metadata !"bit", metadata !"_ZN11ap_int_baseILi2ELb0ELb1EE3bitEi", metadata !56, i32 2070, metadata !1246, i1 false, i1 false, i32 0, i32 0, null, i32 256, i1 false, null, null, i32 0, metadata !68, i32 2070} ; [ DW_TAG_subprogram ]
!1286 = metadata !{i32 786478, i32 0, metadata !1031, metadata !"bit", metadata !"bit", metadata !"_ZNK11ap_int_baseILi2ELb0ELb1EE3bitEi", metadata !56, i32 2084, metadata !1208, i1 false, i1 false, i32 0, i32 0, null, i32 256, i1 false, null, null, i32 0, metadata !68, i32 2084} ; [ DW_TAG_subprogram ]
!1287 = metadata !{i32 786478, i32 0, metadata !1031, metadata !"and_reduce", metadata !"and_reduce", metadata !"_ZN11ap_int_baseILi2ELb0ELb1EE10and_reduceEv", metadata !56, i32 2264, metadata !1288, i1 false, i1 false, i32 0, i32 0, null, i32 256, i1 false, null, null, i32 0, metadata !68, i32 2264} ; [ DW_TAG_subprogram ]
!1288 = metadata !{i32 786453, i32 0, metadata !"", i32 0, i32 0, i64 0, i64 0, i64 0, i32 0, null, metadata !1289, i32 0, i32 0} ; [ DW_TAG_subroutine_type ]
!1289 = metadata !{metadata !74, metadata !1046}
!1290 = metadata !{i32 786478, i32 0, metadata !1031, metadata !"nand_reduce", metadata !"nand_reduce", metadata !"_ZN11ap_int_baseILi2ELb0ELb1EE11nand_reduceEv", metadata !56, i32 2267, metadata !1288, i1 false, i1 false, i32 0, i32 0, null, i32 256, i1 false, null, null, i32 0, metadata !68, i32 2267} ; [ DW_TAG_subprogram ]
!1291 = metadata !{i32 786478, i32 0, metadata !1031, metadata !"or_reduce", metadata !"or_reduce", metadata !"_ZN11ap_int_baseILi2ELb0ELb1EE9or_reduceEv", metadata !56, i32 2270, metadata !1288, i1 false, i1 false, i32 0, i32 0, null, i32 256, i1 false, null, null, i32 0, metadata !68, i32 2270} ; [ DW_TAG_subprogram ]
!1292 = metadata !{i32 786478, i32 0, metadata !1031, metadata !"nor_reduce", metadata !"nor_reduce", metadata !"_ZN11ap_int_baseILi2ELb0ELb1EE10nor_reduceEv", metadata !56, i32 2273, metadata !1288, i1 false, i1 false, i32 0, i32 0, null, i32 256, i1 false, null, null, i32 0, metadata !68, i32 2273} ; [ DW_TAG_subprogram ]
